((dp0
S'{alfresco/site-webscripts/org/alfresco/share/pages/faceted-search/faceted-search.get.properties}faceted-search-config.label'
p1
S'Konfiguration af facets\\u00f8gning'
p2
sS'{alfresco/messages/slingshot.properties}role.SiteManager.description'
p3
S'har fulde rettigheder til alt indhold p\xc3\xa5 sitet - b\xc3\xa5de det, som de selv og andre har oprettet'
p4
sS'{alfresco/site-webscripts/org/alfresco/modules/feed/config-feed.post.properties}title.error.unavailable'
p5
S'RSS feed er ikke tilg\\u00e6ngelig'
p6
sS'{alfresco/site-webscripts/org/alfresco/share/pages/faceted-search/faceted-search-config.get.properties}faceted-search-config.create-facet.label'
p7
S'Opret nyt filter'
p8
sS'{alfresco/site-webscripts/org/alfresco/share/imports/document-library.lib.properties}create.content.name.label'
p9
S'Navn'
p10
sS'{alfresco/site-webscripts/org/alfresco/components/invite/members-bar.get.properties}link.add-users'
p11
S'Tilf\xc3\xb8j brugere'
p12
sS'{alfresco/site-webscripts/org/alfresco/components/dashlets/async-rssfeed.post.properties}title.error.unavailable'
p13
S'RSS feed er ikke tilg\\u00e6ngelig'
p14
sS'{alfresco/messages/slingshot.properties}role.SiteCollaborator.description'
p15
S'TODO'
p16
sS'{alfresco/site-webscripts/org/alfresco/modules/cloud/cloud-auth-form.get.properties}label.signup'
p17
S'Ingen konto? Tilmeld dig gratis'
p18
sS'{alfresco/site-webscripts/org/alfresco/modules/cloud/cloud-sync-status.get.properties}sync.status.unknown-location.no-permissions'
p19
S'Du har ikke rettigheder til at se detaljer for nodes'
p20
sS'{alfresco/site-webscripts/org/alfresco/components/form/control-wrapper.post.properties}form.control.checkbox.no'
p21
S'Nej'
p22
sS'{alfresco/messages/slingshot.properties}tool.module-package.label'
p23
S'Modulbrowser'
p24
sS'{alfresco/site-webscripts/org/alfresco/components/dashboard/customise-dashlets.get.properties}dashlet.site-content-report.description'
p25
S'Viser sitets forskellige typer grafisk'
p26
sS'{alfresco/messages/slingshot.properties}hybridsync.ssd-failed-reason-header-label'
p27
S'Synkroniseringsfejltype'
p28
sS'{alfresco/site-webscripts/org/alfresco/components/dashlets/async-rssfeed.post.properties}label.noItems'
p29
S'Ingen nyhedsposter'
p30
sS'{alfresco/site-webscripts/org/alfresco/share/pages/faceted-search/faceted-search-config.get.properties}faceted-search-config.isDefault.label'
p31
S'Standard filter'
p32
sS'{alfresco/site-webscripts/org/alfresco/share/pages/faceted-search/faceted-search.get.properties}faceted-search.results.caption'
p33
S'S\xc3\xb8geresultater'
p34
sS'{alfresco/site-webscripts/org/alfresco/components/invite/added-users-list.get.properties}added-users-list.add-button-text'
p35
S'Tilf\xc3\xb8j brugere'
p36
sS'{alfresco/site-webscripts/org/alfresco/share/pages/faceted-search/faceted-search-config.get.properties}faceted-search-config.maxFilters.label'
p37
S'Antal filtre'
p38
sS'{alfresco/site-webscripts/org/alfresco/share/pages/faceted-search/faceted-search-config.get.properties}faceted-search-config.form.cancel.label'
p39
S'Annuller'
p40
sS'{alfresco/site-webscripts/org/alfresco/share/pages/faceted-search/faceted-search-config.get.properties}faceted-search-config.filterId.placeHolder'
p41
S'Indtast et unikt filter ID'
p42
sS'{alfresco/site-webscripts/org/alfresco/components/form/control-wrapper.post.properties}form.control.object-picker.search.enter-more'
p43
S'Indtast mindst {0} tegn for at s\xc3\xb8ge'
p44
sS'{alfresco/site-webscripts/org/alfresco/share/imports/share-header.lib.properties}group.set_status.label'
p45
S'Status'
p46
sS'{alfresco/site-webscripts/org/alfresco/components/people-finder/people-finder.get.properties}message.results'
p47
S'TODO'
p48
sS'{alfresco/site-webscripts/org/alfresco/components/form/control-wrapper.post.properties}form.control.object-picker.items-list.loading'
p49
S'Henter...'
p50
sS'{alfresco/site-webscripts/org/alfresco/components/console/usersgroups/users.get.properties}label.authorization.status.DEAUTHORIZED'
p51
S'TODO'
p52
sS'{alfresco/site-webscripts/org/alfresco/share/pages/faceted-search/faceted-search.get.properties}faceted-search.select-search-form.label'
p53
S'V\xc3\xa6lg formular til avanceret s\xc3\xb8gning'
p54
sS'{alfresco/site-webscripts/org/alfresco/share/imports/document-library.lib.properties}create.folder.title'
p55
S'Opret mappe'
p56
sS'{alfresco/site-webscripts/org/alfresco/components/console/usersgroups/users.get.properties}reauthorize.dialog.title'
p57
S'TODO'
p58
sS'{alfresco/site-webscripts/org/alfresco/modules/cloud/cloud-sync-status.get.properties}sync.status.unknown-location.cause'
p59
S'\xc3\x85rsag'
p60
sS'{alfresco/site-webscripts/org/alfresco/components/dashlets/async-rssfeed.post.properties}title.error.unsupported'
p61
S'RSS feed format er ikke underst\xc3\xb8ttet'
p62
sS'{alfresco/site-webscripts/org/alfresco/share/imports/share-header.lib.properties}header.menu.user_dashboard.label'
p63
S'Instrumentbr\xc3\xa6t'
p64
sS'{alfresco/site-webscripts/org/alfresco/components/form/control-wrapper.post.properties}form.control.object-picker.create-new'
p65
S'Opret nyt objekt'
p66
sS'{alfresco/site-webscripts/org/alfresco/share/imports/document-library.lib.properties}selected-items.label'
p67
S'Valgte objekter...'
p68
sS'{alfresco/site-webscripts/org/alfresco/components/form/control-wrapper.post.properties}form.control.association.message.searching'
p69
S'S\xc3\xb8ger...'
p70
sS'{alfresco/site-webscripts/org/alfresco/share/imports/share-header.lib.properties}group.home_page.label'
p71
S'Hjem'
p72
sS'{alfresco/site-webscripts/org/alfresco/share/imports/document-library.lib.properties}show-path.label'
p73
S'Vis sti'
p74
sS'{alfresco/site-webscripts/org/alfresco/share/options/faceted-search/available-facets.get.properties}facetQName.description'
p75
S'Beskrivelse'
p76
sS'{alfresco/site-webscripts/org/alfresco/share/pages/faceted-search/faceted-search-config.get.properties}faceted-search-config.displayControl.description'
p77
S'V\xc3\xa6lg, hvordan filtret skal vises'
p78
sS'{alfresco/site-webscripts/org/alfresco/share/pages/faceted-search/faceted-search-config.get.properties}faceted-search-config.filterId.error.invalid'
p79
S'TODO'
p80
sS'{alfresco/site-webscripts/org/alfresco/share/pages/faceted-search/faceted-search-config.get.properties}faceted-search-config.sortBy.index.label'
p81
S'Serverdefineret indeks'
p82
sS'{alfresco/site-webscripts/org/alfresco/components/comments/comments-list.get.properties}link.help'
p83
S'Tasteturgenveje: Fed (Ctrl+B), Kursiv (Ctrl+I), Understreg (Ctrl+U), Fortryd (Ctrl+Z), Omg\xc3\xb8r (Ctrl+Y)'
p84
sS'{alfresco/site-webscripts/org/alfresco/components/form/control-wrapper.post.properties}form.field.constraint.minmax'
p85
S'Dette felt skal have en v\xc3\xa6rdi mellem {0} og {1}'
p86
sS'{alfresco/messages/slingshot.properties}message.edit-online-aos.edit_offline_locked.cancel'
p87
S'Annuller'
p88
sS'{alfresco/site-webscripts/org/alfresco/components/form/control-wrapper.post.properties}form.control.object-picker.description'
p89
S'Beskrivelse'
p90
sS'{alfresco/site-webscripts/org/alfresco/components/tag-filter/tag-filter.get.properties}message.refresh.failure.forbidden'
p91
S'Tags er kun synlige for medlemmer af sitet'
p92
sS'{alfresco/messages/slingshot.properties}tool.module-package.description'
p93
S'Modulbrowser'
p94
sS'{alfresco/site-webscripts/org/alfresco/components/dashlets/dynamic-welcome.get.properties}user.panel.delete.header'
p95
S'Skjul panelet?'
p96
sS'{alfresco/site-webscripts/org/alfresco/share/pages/faceted-search/faceted-search-config.get.properties}faceted-search-config.sortBy.lowToHigh.label'
p97
S'Antal resultater (lav til h\xc3\xb8j)'
p98
sS'{alfresco/site-webscripts/org/alfresco/components/form/control-wrapper.post.properties}form.control.object-picker.add-item'
p99
S'Tilf\xc3\xb8j'
p100
sS'{alfresco/site-webscripts/org/alfresco/share/pages/faceted-search/faceted-search-config.get.properties}faceted-search-config.displayControl.label'
p101
S'Filtertype'
p102
sS'{alfresco/site-webscripts/org/alfresco/components/form/control-wrapper.post.properties}form.control.date-picker.entry.date.format'
p103
S'd/M/yyyy'
p104
sS'{alfresco/site-webscripts/org/alfresco/share/pages/faceted-search/faceted-search.get.properties}faceted-search.heading.sort-menu'
p105
S'Sorteringsmenu'
p106
sS'{alfresco/site-webscripts/org/alfresco/components/dashlets/dynamic-welcome.get.properties}user.welcome.close'
p107
S'Skjul'
p108
sS'{alfresco/site-webscripts/org/alfresco/components/console/usersgroups/users.get.properties}label.authorization.status.NEVER_AUTHORIZED'
p109
S'Aldrig autoriseret'
p110
sS'{alfresco/site-webscripts/org/alfresco/components/console/cloud-sync-management.get.properties}manage-syncset-defs.page.title'
p111
S'H\xc3\xa5ndter synkronisering til skyen'
p112
sS'{alfresco/site-webscripts/org/alfresco/components/dashboard/customise-dashlets.get.properties}header.welcomePreference'
p113
S'Kom godt i gang'
p114
sS'{alfresco/messages/slingshot.properties}roles-tooltip.header'
p115
S'Om roller'
p116
sS'{alfresco/site-webscripts/org/alfresco/share/pages/faceted-search/faceted-search-config.get.properties}faceted-search-config.sortBy.label'
p117
S'Sort\xc3\xa9r efter'
p118
sS'{alfresco/messages/slingshot.properties}message.edit-online-aos.edit_offline_locked.title'
p119
S'{0} er ved redigere denne fil'
p120
sS'{alfresco/messages/slingshot.properties}role.Collaborator.description'
p121
S'TODO'
p122
sS'{alfresco/site-webscripts/org/alfresco/components/form/control-wrapper.post.properties}form.notset'
p123
S'Ikke anf\xc3\xb8rt'
p124
sS'{alfresco/messages/slingshot.properties}hybridsync.remote-tenant-id-header-label'
p125
S'Skyens netv\xc3\xa6rk'
p126
sS'{alfresco/site-webscripts/org/alfresco/components/title/collaboration-title.get.properties}message.site-does-not-exist-title'
p127
S"Sitet ''{0}'' findes ikke, eller ogs\xc3\xa5 har du ikke tilladelse til at tilg\xc3\xa5 det"
p128
sS'{alfresco/site-webscripts/org/alfresco/components/form/control-wrapper.post.properties}form.field.help'
p129
S'Klik for at vise/skjule hj\xc3\xa6lpeteksten for dette felt'
p130
sS'{alfresco/site-webscripts/org/alfresco/components/form/control-wrapper.post.properties}form.field.incomplete'
p131
S'Dette felt er obligatorisk, men en v\xc3\xa6rdi er ikke anf\xc3\xb8rt'
p132
sS'{alfresco/site-webscripts/org/alfresco/components/dashlets/async-rssfeed.post.properties}dashlet.help'
p133
S'Instrumentet viser det RSS feed, som du \xc3\xb8nsker. Klik p\xc3\xa5 redigeringsikonet p\xc3\xa5 instrumentet for at skifte feed.'
p134
sS'{alfresco/site-webscripts/org/alfresco/share/options/faceted-search/available-facets.get.properties}facetQName.modified'
p135
S'Sidst \xc3\xa6ndret'
p136
sS'{alfresco/messages/slingshot.properties}button.take-ownership'
p137
S'OK'
p138
sS'{alfresco/site-webscripts/org/alfresco/components/invite/instructions-bar.get.properties}instructions-bar.instructions-text'
p139
S'Find og v\xc3\xa6lg brugere, tildel dem roller og tilf\xc3\xb8j dem til dette site'
p140
sS'{alfresco/site-webscripts/org/alfresco/components/console/usersgroups/users.get.properties}reauthorize.dialog.success'
p141
S'Re-autorisation lykkedes'
p142
sS'{alfresco/site-webscripts/org/alfresco/components/form/control-wrapper.post.properties}form.control.object-picker.items-list.empty'
p143
S'Ingen objekter fundet'
p144
sS'{alfresco/site-webscripts/org/alfresco/share/pages/faceted-search/faceted-search-config.get.properties}faceted-search-config.filterId.error.isUse'
p145
S'Dette filter ID er allerede blevet brugt'
p146
sS'{alfresco/site-webscripts/org/alfresco/components/form/control-wrapper.post.properties}form.control.object-picker.selected-items.empty'
p147
S'Ingen objekter valgt'
p148
sS'{alfresco/site-webscripts/org/alfresco/share/pages/admin-console/custom-model-manager.get.properties}cmm.button.back-to-models'
p149
S'<< Vis modeller'
p150
sS'{alfresco/site-webscripts/org/alfresco/components/documentlibrary/tree.get.properties}message.refresh.failure.forbidden'
p151
S'Biblioteket er kun synligt for medlemmer af sitet'
p152
sS'{alfresco/site-webscripts/org/alfresco/share/pages/faceted-search/faceted-search-config.get.properties}faceted-search-config.isEnabled.yes'
p153
S'Ja'
p154
sS'{alfresco/site-webscripts/org/alfresco/components/form/control-wrapper.post.properties}form.button.cancel.label'
p155
S'Annuller'
p156
sS'{alfresco/messages/slingshot.properties}site.visibility.description.MODERATED'
p157
S'Alle i din organisation kan finde dette site og bede om adgang. Adgang kan gives af siteadministratorer.'
p158
sS'{alfresco/site-webscripts/org/alfresco/share/pages/faceted-search/faceted-search-config.get.properties}faceted-search-config.scope.site.label'
p159
S'Valgte sites'
p160
sS'{alfresco/site-webscripts/org/alfresco/modules/wiki/config-wiki.post.properties}message.nopage'
p161
S'Ingen sider er konfigureret'
p162
sS'{alfresco/site-webscripts/org/alfresco/components/console/usersgroups/users.get.properties}deauthorize.dialog.cannot.deauthorize.admin'
p163
S'Du kan ikke fjerne autorisationen fra administratorer'
p164
sS'{alfresco/site-webscripts/org/alfresco/components/form/control-wrapper.post.properties}form.control.date-picker.view.time.format'
p165
S'EEE dd MMM yyyy HH:mm:ss'
p166
sS'{alfresco/site-webscripts/org/alfresco/components/form/control-wrapper.post.properties}form.field.ambiguous'
p167
S'er flertydig, kontakt venligst din systemadministrator for at fjerne denne besked'
p168
sS'{alfresco/messages/slingshot.properties}message.take-ownership.failure'
p169
S"Kunne ikke blive ejer af ''{0}''"
p170
sS'{alfresco/messages/slingshot.properties}message.unlock-document.success'
p171
S"''{0}'' er l\xc3\xa5st op for redigering"
p172
sS'{alfresco/site-webscripts/org/alfresco/components/form/control-wrapper.post.properties}form.control.period.type'
p173
S'Periode'
p174
sS'{alfresco/site-webscripts/org/alfresco/share/pages/faceted-search/faceted-search-config.get.properties}faceted-search-config.scope.description'
p175
S'V\xc3\xa6lg, hvor filtret skal v\xc3\xa6re tilg\xc3\xa6ngeligt'
p176
sS'{alfresco/site-webscripts/org/alfresco/components/dashboard/customise-dashlets.get.properties}label.keyboard-instruction2'
p177
S'Ved brug af tastetur: brug tabulatortasten for at v\xc3\xa6lge et instrument. Brug piletasterne for at navigere til n\xc3\xa6ste instrument. Tryk escape for at frav\xc3\xa6lge et objekt. Tryk Delete for at slette et objekt.'
p178
sS'{alfresco/messages/slingshot.properties}quickshare.document.unshare.user.failure'
p179
S'Du har ikke de n\xc3\xb8dvendige tilladelser til udf\xc3\xb8re denne handling'
p180
sS'{alfresco/site-webscripts/org/alfresco/share/pages/faceted-search/faceted-search-config.get.properties}faceted-search-config.minFilterValueLength.description'
p181
S'V\xc3\xa6lg kun at vise filterresultater med et vidst antal karakterer, s\xc3\xa5 du kan ekskludere korte ord som \xe2\x80\x9dog\xe2\x80\x9d og \xe2\x80\x9dtil\xe2\x80\x9d fra filterresultaterne'
p182
sS'{alfresco/site-webscripts/org/alfresco/components/dashboard/customise-dashlets.get.properties}welcomePanel.disabled'
p183
S'Skjul fra instrumentbr\xc3\xa6t'
p184
sS'{alfresco/site-webscripts/org/alfresco/share/options/faceted-search/available-facets.get.properties}facetQName.mimetype'
p185
S'Format'
p186
sS'{alfresco/site-webscripts/org/alfresco/modules/documentlibrary/copy-move-to.get.properties}unzip.message.please-wait'
p187
S'Filer udpakkes...'
p188
sS'{alfresco/messages/slingshot.properties}role.SiteConsumer.description'
p189
S'TODO'
p190
sS'{alfresco/site-webscripts/org/alfresco/share/pages/faceted-search/faceted-search-config.get.properties}faceted-search-config.scopedSites.label'
p191
S'Sites'
p192
sS'{alfresco/messages/slingshot.properties}role.Editor'
p193
S'Redakt\xc3\xb8r'
p194
sS'{alfresco/site-webscripts/org/alfresco/components/form/control-wrapper.post.properties}form.control.size.label'
p195
S'St\xc3\xb8rrelse'
p196
sS'{alfresco/messages/slingshot.properties}message.edit-online-aos.edit_offline_locked.message'
p197
S'Dine \xc3\xa6ndringer vil muligvis g\xc3\xa5 tabt'
p198
sS'{alfresco/messages/slingshot.properties}hybridsync.sync-creator-header-label'
p199
S'Opretter af synkronisering'
p200
sS'{alfresco/site-webscripts/org/alfresco/components/invite/invitationlist.get.properties}invitationlist.addDirect.title'
p201
S'V\xc3\xa6lg brugerrolle'
p202
sS'{alfresco/site-webscripts/org/alfresco/components/console/usersgroups/users.get.properties}label.authorization.status.AUTHORIZED'
p203
S'Autoriseret'
p204
sS'{alfresco/site-webscripts/org/alfresco/share/pages/faceted-search/faceted-search-config.get.properties}faceted-search-config.delete.confirmationPrompt'
p205
S"Er du sikker p\xc3\xa5, at du vil slette '{filterID}'?"
p206
sS'{alfresco/messages/slingshot.properties}label.trademark'
p207
S'Simpelt + Smart'
p208
sS'{alfresco/messages/slingshot.properties}lightbox.close'
p209
S'luk'
p210
sS'{alfresco/site-webscripts/org/alfresco/components/console/usersgroups/users.get.properties}reauthorize.dialog.message'
p211
S'TODO'
p212
sS'{alfresco/site-webscripts/org/alfresco/components/form/control-wrapper.post.properties}form.field.constraint.length'
p213
S'Dette felt skal indeholde mellem {0} og {1} tegn'
p214
sS'{alfresco/site-webscripts/org/alfresco/components/form/control-wrapper.post.properties}form.control.date-picker.display.time.format'
p215
S'HH:MM (24 timer)'
p216
sS'{alfresco/messages/slingshot.properties}message.edit-online.supported_office_version_required'
p217
S'Du bruger en version af Microsoft Office, som ikke er underst\xc3\xb8ttet af Alfresco. Pr\xc3\xb8v at opdatere Microsoft Office. Office 2007 og 2008 virker ikke med Google Chrome.'
p218
sS'{alfresco/messages/slingshot.properties}role.Consumer.description'
p219
S'TODO'
p220
sS'{alfresco/site-webscripts/org/alfresco/components/console/cloud-sync-management.get.properties}button.ssd-reassign.applyFilter.label'
p221
S'Anvend filter'
p222
sS'{alfresco/site-webscripts/org/alfresco/components/dashlets/async-rssfeed.post.properties}title.error.bad_data'
p223
S'RSS feed kan ikke l\xc3\xa6ses'
p224
sS'{alfresco/site-webscripts/org/alfresco/components/dashboard/customise-dashlets.get.properties}dashlet.top-site-contributor-report.description'
p225
S'Viser, hvem der har bidraget mest til sitet.'
p226
sS'{alfresco/site-webscripts/org/alfresco/components/invite/added-users-list.get.properties}added-users-list.tally'
p227
S'Antal brugere tilf\xc3\xb8jet {0}'
p228
sS'{alfresco/site-webscripts/org/alfresco/components/form/control-wrapper.post.properties}form.control.novalue'
p229
S'(tom)'
p230
sS'{alfresco/site-webscripts/org/alfresco/components/form/control-wrapper.post.properties}form.field.constraint.number'
p231
S'Dette felt skal indeholde et tal'
p232
sS'{alfresco/messages/slingshot.properties}role.Collaborator'
p233
S'Samarbejdspartner'
p234
sS'{alfresco/messages/slingshot.properties}hybridsync.path-desc-header-label'
p235
S'Oprindelig placering af objekt'
p236
sS'{alfresco/site-webscripts/org/alfresco/share/pages/faceted-search/faceted-search-config.get.properties}faceted-search-config.scopedSites.description'
p237
S'Tilf\xc3\xb8j og v\xc3\xa6lg sites, som filtret skal v\xc3\xa6re tilg\xc3\xa6ngeligt for'
p238
sS'{alfresco/messages/slingshot.properties}calendar.widget_control_config.label_year'
p239
S'Indtast \xc3\xa5rstal'
p240
sS'{alfresco/site-webscripts/org/alfresco/components/form/control-wrapper.post.properties}form.control.mimetype.label'
p241
S'Mimetype'
p242
sS'{alfresco/messages/slingshot.properties}message.failure.workflow'
p243
S'Brugeren {0} har ikke tilladelse til at tilg\xc3\xa5 denne opgave'
p244
sS'{alfresco/site-webscripts/org/alfresco/components/form/control-wrapper.post.properties}form.not.present'
p245
S"En formular kunne ikke findes. Er 'itemKind' og 'itemId' anf\xc3\xb8rt?"
p246
sS'{alfresco/site-webscripts/org/alfresco/components/console/usersgroups/users.get.properties}deauthorize.dialog.header'
p247
S'TODO'
p248
sS'{alfresco/site-webscripts/org/alfresco/components/invite/invitationlist.get.properties}added-users-list.tally'
p249
S'Antal brugere tilf\xc3\xb8jet {0}'
p250
sS'{alfresco/messages/slingshot.properties}message.edit-online-aos.edit_offline_locked.confirm'
p251
S'Forts\xc3\xa6t'
p252
sS'{alfresco/site-webscripts/org/alfresco/components/dashboard/customise-dashlets.get.properties}welcomePanel.enabled'
p253
S'Vis p\xc3\xa5 instrumentbr\xc3\xa6t'
p254
sS'{alfresco/messages/slingshot.properties}aspect.exif_camera'
p255
S'Kameradetaljer'
p256
sS'{alfresco/site-webscripts/org/alfresco/components/console/cloud-sync-management.get.properties}button.ssd-reassign.exportCSV.label'
p257
S'Eksporter'
p258
sS'{alfresco/site-webscripts/org/alfresco/components/console/module-package.get.properties}module-package.version'
p259
S'Version'
p260
sS'{alfresco/site-webscripts/org/alfresco/share/pages/admin-console/custom-model-manager.get.properties}cmm.button.back-to-types-propertygroups'
p261
S'<< Vis typer og aspekter'
p262
sS'{alfresco/site-webscripts/org/alfresco/share/imports/document-library.lib.properties}create.text-document.title'
p263
S'Opret tekstdokument'
p264
sS'{alfresco/messages/slingshot.properties}site.visibility.label.MODERATED'
p265
S'Modereret'
p266
sS'{alfresco/site-webscripts/org/alfresco/components/form/control-wrapper.post.properties}form.default.set.label'
p267
S'Standard v\xc3\xa6rdi'
p268
sS'{alfresco/messages/slingshot.properties}actions.folder.take-ownership'
p269
S'Bliv ejer'
p270
sS'{alfresco/site-webscripts/org/alfresco/modules/documentlibrary/copy-move-to.get.properties}unzip.button'
p271
S'Udpak'
p272
sS'{alfresco/site-webscripts/org/alfresco/share/pages/faceted-search/faceted-search.get.properties}faceted-search.heading.search-results-list'
p273
S'Resultater'
p274
sS'{alfresco/site-webscripts/org/alfresco/share/imports/document-library.lib.properties}create.xml-document.title'
p275
S'Opret XML-dokument'
p276
sS'{alfresco/site-webscripts/org/alfresco/share/imports/share-header.lib.properties}set_dashboard_as_home.label'
p277
S'Brug mit instrumentbr\xc3\xa6t'
p278
sS'{alfresco/site-webscripts/org/alfresco/components/form/control-wrapper.post.properties}form.control.object-picker.current.failure'
p279
S'Kunne ikke vise nuv\xc3\xa6rende v\xc3\xa6rdier'
p280
sS'{alfresco/site-webscripts/org/alfresco/components/form/control-wrapper.post.properties}form.control.object-picker.remove-item'
p281
S'Fjern'
p282
sS'{alfresco/site-webscripts/org/alfresco/components/form/control-wrapper.post.properties}error.configuration'
p283
S'Denne komponent er ikke konfigureret korrekt'
p284
sS'{alfresco/site-webscripts/org/alfresco/share/pages/faceted-search/faceted-search-config.get.properties}faceted-search-config.filterId.description'
p285
S'Det unikke id for dette s\xc3\xb8gefilter'
p286
sS'{alfresco/site-webscripts/org/alfresco/share/imports/share-header.lib.properties}group.other.label'
p287
S'Generelt'
p288
sS'{alfresco/site-webscripts/org/alfresco/components/dashboard/customise-dashlets.get.properties}dashlet.site-content-report.shortName'
p289
S'Filetypeoversigt for sitet'
p290
sS'{alfresco/site-webscripts/org/alfresco/share/imports/document-library.lib.properties}pagination.options.label'
p291
S'Resultater pr. side'
p292
sS'{alfresco/messages/slingshot.properties}role.Coordinator.description'
p293
S'har fulde rettigheder til alt indhold - b\xc3\xa5de det, som de selv og andre har oprettet'
p294
sS'{alfresco/site-webscripts/org/alfresco/share/pages/faceted-search/faceted-search.get.properties}faceted-search.show-more-results.label'
p295
S'Vis flere resultater'
p296
sS'{alfresco/site-webscripts/org/alfresco/modules/documentlibrary/copy-move-to.get.properties}unzip.message.no-files'
p297
S'Der skal mindst tilf\xc3\xb8jes en fil, som skal udpakkes'
p298
sS'{alfresco/site-webscripts/org/alfresco/modules/feed/config-feed.post.properties}title.error.bad_data'
p299
S'RSS feed kan ikke l\xc3\xa6ses'
p300
sS'{alfresco/site-webscripts/org/alfresco/share/imports/document-library.lib.properties}create.html-document.label'
p301
S'HTML-dokument'
p302
sS'{alfresco/site-webscripts/org/alfresco/components/form/control-wrapper.post.properties}form.jsonsubmit.failed'
p303
S'Kunne ikke sende JSON data'
p304
sS'{alfresco/messages/slingshot.properties}role.Contributor'
p305
S'Bidragsyder'
p306
sS'{alfresco/site-webscripts/org/alfresco/components/form/control-wrapper.post.properties}form.control.date-picker.display.date.format'
p307
S'DD/MM/YYYY'
p308
sS'{alfresco/messages/slingshot.properties}message.unlock-document.failure'
p309
S"Kunne ikke l\xc3\xa5se ''{0}'' op."
p310
sS'{alfresco/site-webscripts/org/alfresco/components/console/cloud-sync-management.get.properties}button.ssd-reassign.label'
p311
S'Bliv ejer'
p312
sS'{alfresco/messages/slingshot.properties}roles-tooltip.docs-url'
p313
S'http://docs.alfresco.com/{0}/references/permissions_share.html'
p314
sS'{alfresco/site-webscripts/org/alfresco/share/pages/faceted-search/faceted-search-config.get.properties}faceted-search-config.minFilterValueLength.label'
p315
S'Minimal filterl\xc3\xa6ngde'
p316
sS'{alfresco/site-webscripts/org/alfresco/share/pages/faceted-search/faceted-search-config.get.properties}faceted-search-config.isEnabled.label'
p317
S'Vis med s\xc3\xb8geresultater'
p318
sS'{alfresco/site-webscripts/org/alfresco/components/form/control-wrapper.post.properties}form.control.association.message.error'
p319
S'Ikke muligt at udf\xc3\xb8re s\xc3\xb8gning'
p320
sS'{alfresco/messages/slingshot.properties}site.visibility.label.PUBLIC'
p321
S'Offentlig'
p322
sS'{alfresco/site-webscripts/org/alfresco/components/form/control-wrapper.post.properties}form.control.date-range.from'
p323
S'Fra'
p324
sS'{alfresco/site-webscripts/org/alfresco/components/form/control-wrapper.post.properties}form.control.date-picker.choose'
p325
S'V\xc3\xa6lg en dato:'
p326
sS'{alfresco/site-webscripts/org/alfresco/components/dashboard/customise-dashlets.get.properties}dashlet.top-site-contributor-report.shortName'
p327
S'Bidragsyderoversigt for sitet'
p328
sS'{alfresco/site-webscripts/org/alfresco/components/form/control-wrapper.post.properties}form.control.date-picker.entry.datetime.format.nojs'
p329
S'YYYY-MM-DDThh:mm:ss.sTZD'
p330
sS'{alfresco/site-webscripts/org/alfresco/components/dashlets/dynamic-welcome.get.properties}site.welcome.close'
p331
S'Fjern'
p332
sS'{alfresco/site-webscripts/org/alfresco/components/console/usersgroups/users.get.properties}reauthorize.dialog.fail'
p333
S'Reautorisation fejlet (autorisationskoden blev ikke accepteret eller der opstod en fejl p\xc3\xa5 serveren)'
p334
sS'{alfresco/site-webscripts/org/alfresco/components/console/module-package.get.properties}module-package.page.title'
p335
S'Modulbrowser'
p336
sS'{alfresco/site-webscripts/org/alfresco/modules/feed/config-feed.post.properties}label.noNews'
p337
S'Ingen nyhedsposter'
p338
sS'{alfresco/site-webscripts/org/alfresco/share/pages/faceted-search/faceted-search-config.get.properties}faceted-search-config.sortBy.AtoZ.label'
p339
S'A-Z'
p340
sS'{alfresco/site-webscripts/org/alfresco/share/pages/faceted-search/faceted-search-config.get.properties}faceted-search-config.displayControl.basic.label'
p341
S'Afkrydningsfelt'
p342
sS'{alfresco/site-webscripts/org/alfresco/modules/documentlibrary/copy-move-to.get.properties}unzip.message.success'
p343
S'Udpakkede {0} objekt(er)'
p344
sS'{alfresco/messages/slingshot.properties}role.Consumer'
p345
S'Konsument'
p346
sS'{alfresco/site-webscripts/org/alfresco/components/invite/added-users-list.get.properties}added-users-list.empty'
p347
S'Du har ikke tilf\xc3\xb8jet nogle brugere endnu'
p348
sS'{alfresco/site-webscripts/org/alfresco/components/console/cloud-sync-management.get.properties}button.ssd-reassign.confirm-label'
p349
S'Bliv ejer'
p350
sS'{alfresco/site-webscripts/org/alfresco/components/console/usersgroups/users.get.properties}message.deauthorize.failure'
p351
S'TODO'
p352
sS'{alfresco/site-webscripts/org/alfresco/components/form/control-wrapper.post.properties}form.control.association.message.instructions'
p353
S'Indtast s\xc3\xb8geterm'
p354
sS'{alfresco/site-webscripts/org/alfresco/components/form/control-wrapper.post.properties}form.button.reset.label'
p355
S'Ryd'
p356
sS'{alfresco/site-webscripts/org/alfresco/share/imports/document-library.lib.properties}doclib.options.label'
p357
S'Valgmuligheder'
p358
sS'{alfresco/site-webscripts/org/alfresco/share/imports/document-library.lib.properties}create.content.content.label'
p359
S'Indhold'
p360
sS'{alfresco/site-webscripts/org/alfresco/share/imports/document-library.lib.properties}doclib.fullscreen.label'
p361
S'Fuld sk\xc3\xa6rm'
p362
sS'{alfresco/site-webscripts/org/alfresco/share/pages/faceted-search/faceted-search-config.get.properties}faceted-search-config.sortBy.ZtoA.label'
p363
S'Z-A'
p364
sS'{alfresco/site-webscripts/org/alfresco/share/pages/faceted-search/faceted-search-config.get.properties}faceted-search-config.isEnabled.description'
p365
S'Du kan sl\xc3\xa5 dette fra for at skjulde filtret fra s\xc3\xb8geresultaterne'
p366
sS'{alfresco/site-webscripts/org/alfresco/components/form/control-wrapper.post.properties}form.control.period.expression'
p367
S'Udtryk'
p368
sS'{alfresco/site-webscripts/org/alfresco/share/pages/faceted-search/faceted-search-config.get.properties}faceted-search-config.form.save.label'
p369
S'Gem'
p370
sS'{alfresco/site-webscripts/org/alfresco/components/form/control-wrapper.post.properties}form.required.fields.marker'
p371
S'*'
p372
sS'{alfresco/site-webscripts/org/alfresco/components/console/usersgroups/users.get.properties}deauthorize.dialog.deauthorize.confirm.ok'
p373
S'Fjern autorisation'
p374
sS'{alfresco/site-webscripts/org/alfresco/components/form/control-wrapper.post.properties}form.control.date-picker.entry.time.format'
p375
S'HH:mm'
p376
sS'{alfresco/site-webscripts/org/alfresco/components/form/control-wrapper.post.properties}form.control.date-picker.view.date.format'
p377
S'EEE dd MMM yyyy'
p378
sS'{alfresco/site-webscripts/org/alfresco/share/pages/faceted-search/faceted-search-config.get.properties}faceted-search-config.isEnabled.no'
p379
S'Nej'
p380
sS'{alfresco/messages/slingshot.properties}hybridsync.target-folder-node-ref-header-label'
p381
S'Destination for sky'
p382
sS'{alfresco/site-webscripts/org/alfresco/share/pages/faceted-search/faceted-search-config.get.properties}faceted-search-config.delete.successMessage'
p383
S"'{filterID}' slettet"
p384
sS'{alfresco/site-webscripts/org/alfresco/share/pages/faceted-search/faceted-search.get.properties}faceted-search.results.heading.details'
p385
S'Resultatdetaljer'
p386
sS'{alfresco/site-webscripts/org/alfresco/components/form/control-wrapper.post.properties}form.control.object-picker.modified-on'
p387
S'Sidst \xc3\xa6ndret'
p388
sS'{alfresco/messages/slingshot.properties}role.SiteContributor.description'
p389
S'TODO'
p390
sS'{alfresco/messages/slingshot.properties}hybridsync.ssd-id-header-label'
p391
S'Synkroniserings ID'
p392
sS'{alfresco/site-webscripts/org/alfresco/components/console/usersgroups/users.get.properties}reauthorize.dialog.button.ok'
p393
S'Re-autoris\xc3\xa9r'
p394
sS'{alfresco/site-webscripts/org/alfresco/components/people-finder/people-finder.get.properties}message.maxresults'
p395
S'Mere end {0} s\xc3\xb8geresultater fundet. Viser kun de f\xc3\xb8rste {0}'
p396
sS'{alfresco/site-webscripts/org/alfresco/components/console/module-package.get.properties}module-package.title'
p397
S'Titel'
p398
sS'{alfresco/site-webscripts/org/alfresco/share/imports/document-library.lib.properties}show-sidebar.label'
p399
S'Vis browser sidebar'
p400
sS'{alfresco/site-webscripts/org/alfresco/share/imports/document-library.lib.properties}show-folders.label'
p401
S'Vis mapper'
p402
sS'{alfresco/site-webscripts/org/alfresco/modules/cloud/cloud-sync-status.get.properties}sync.status.unknown-location.unauthorized'
p403
S'Ikke autoriseret'
p404
sS'{alfresco/site-webscripts/org/alfresco/share/pages/faceted-search/faceted-search-config.get.properties}faceted-search-config.filterId.label'
p405
S'Filter ID'
p406
sS'{alfresco/site-webscripts/org/alfresco/share/imports/document-library.lib.properties}create.content.description.label'
p407
S'Beskrivelse'
p408
sS'{alfresco/site-webscripts/org/alfresco/components/console/cloud-sync-management.get.properties}message.no-ssds'
p409
S'Vi kunne ikke finde nogle synkroniserede filer eller mapper'
p410
sS'{alfresco/messages/slingshot.properties}message.edit-online-aos.plugin_blocked.body.chrome'
p411
S'Tryk p\xc3\xa5 blokeringsikonet p\xc3\xa5 adresselinjen i Chrome for at forts\xc3\xa6tte'
p412
sS'{alfresco/site-webscripts/org/alfresco/components/form/control-wrapper.post.properties}form.control.object-picker.search'
p413
S'S\xc3\xb8g'
p414
sS'{alfresco/site-webscripts/org/alfresco/components/comments/comments-list.get.properties}link.showHelp'
p415
S'Vis hj\xc3\xa6lp'
p416
sS'{alfresco/site-webscripts/org/alfresco/modules/cloud/cloud-auth-form.get.properties}label.forgot-password'
p417
S'Glemt password?'
p418
sS'{alfresco/messages/slingshot.properties}message.confirm.take-ownership.title'
p419
S'Bliv ejer?'
p420
sS'{alfresco/site-webscripts/org/alfresco/share/pages/faceted-search/faceted-search.get.properties}faceted-search.suggestions.label'
p421
S'Mente du:'
p422
sS'{alfresco/site-webscripts/org/alfresco/components/form/control-wrapper.post.properties}label.default'
p423
S'V\xc3\xa6rdi'
p424
sS'{alfresco/site-webscripts/org/alfresco/components/console/usersgroups/users.get.properties}label.authorization'
p425
S'Autorisationstilstand'
p426
sS'{alfresco/messages/slingshot.properties}page.error.500.title'
p427
S'TODO'
p428
sS'{alfresco/site-webscripts/org/alfresco/share/pages/admin-console/custom-model-manager.get.properties}header.menu.admin.model.manager.label'
p429
S'H\xc3\xa5ndter modeller'
p430
sS'{alfresco/site-webscripts/org/alfresco/share/imports/document-library.lib.properties}upload.label'
p431
S'Upload'
p432
sS'{alfresco/site-webscripts/org/alfresco/components/invite/added-users-list.get.properties}added-users-list.title'
p433
S'Tilf\xc3\xb8j brugere til Site'
p434
sS'{alfresco/site-webscripts/org/alfresco/share/pages/faceted-search/faceted-search-config.get.properties}faceted-search-config.isDefault.description'
p435
S'Pr\xc3\xa6definerede filtre kan ikke slettes. Du kan skjule dem ved at sl\xc3\xa5 \xe2\x80\x9dVis med s\xc3\xb8geresultater\xe2\x80\x9d fra'
p436
sS'{alfresco/site-webscripts/org/alfresco/modules/create-site.get.properties}error.unableToCreate'
p437
S'Dette site-navn anvendes allerede af et andet site. Unders\xc3\xb8g, om et andet site (som m\xc3\xa5ske er slettet eller findes i en skraldespand) anvender navnet eller v\xc3\xa6lg et andet sitenavn'
p438
sS'{alfresco/site-webscripts/org/alfresco/share/pages/faceted-search/faceted-search.get.properties}faceted-search.hide-advanced-search.label'
p439
S'Skjul avanceret s\xc3\xb8gning'
p440
sS'{alfresco/site-webscripts/org/alfresco/share/options/faceted-search/available-facets.get.properties}facetQName.creator'
p441
S'Oprettet af'
p442
sS'{alfresco/site-webscripts/org/alfresco/components/form/control-wrapper.post.properties}form.control.mimetype.unknown'
p443
S'Ukendt'
p444
sS'{alfresco/site-webscripts/org/alfresco/share/imports/document-library.lib.properties}create.xml-document.label'
p445
S'XML-dokument'
p446
sS'{alfresco/messages/slingshot.properties}roles-tooltip.docs-url-label'
p447
S'Se mere'
p448
sS'{alfresco/site-webscripts/org/alfresco/modules/documentlibrary/copy-move-to.get.properties}unzip.title.single'
p449
S'Udpak {0} til...'
p450
sS'{alfresco/site-webscripts/org/alfresco/components/dashlets/async-rssfeed.post.properties}label.header'
p451
S'RSS Feed'
p452
sS'{alfresco/site-webscripts/org/alfresco/share/pages/faceted-search/faceted-search-config.get.properties}faceted-search-config.update.successMessage'
p453
S"Opdaterede '{filterID}'"
p454
sS'{alfresco/site-webscripts/org/alfresco/share/imports/document-library.lib.properties}create.content.title.label'
p455
S'titel'
p456
sS'{alfresco/site-webscripts/org/alfresco/share/pages/faceted-search/faceted-search-config.get.properties}faceted-search-config.scope.none.label'
p457
S'Overalt'
p458
sS'{alfresco/site-webscripts/org/alfresco/share/pages/faceted-search/faceted-search-config.get.properties}faceted-search-config.scopedSites.site.description'
p459
S'V\xc3\xa6lg og gem et site.'
p460
sS'{alfresco/site-webscripts/org/alfresco/components/console/usersgroups/users.get.properties}message.deauthorize.success'
p461
S'Brugerens autorisation blev \xc3\xa6ndret'
p462
sS'{alfresco/site-webscripts/org/alfresco/components/console/module-package.get.properties}module-package.no-modules'
p463
S'Ingen moduler fundet'
p464
sS'{alfresco/messages/slingshot.properties}site.visibility.description.PUBLIC'
p465
S'Alle i din organisation kan tilg\xc3\xa5 dette site.'
p466
sS'{alfresco/site-webscripts/org/alfresco/components/console/usersgroups/users.get.properties}deauthorize.dialog.deauthorize.confirm.cancel'
p467
S'Annuller'
p468
sS'{alfresco/site-webscripts/org/alfresco/components/form/control-wrapper.post.properties}form.required.fields'
p469
S'Obligatoriske felter'
p470
sS'{alfresco/site-webscripts/org/alfresco/share/pages/faceted-search/faceted-search-config.get.properties}faceted-search-config.facetQName.description'
p471
S'V\xc3\xa6lg egenskab at filtrere efter'
p472
sS'{alfresco/site-webscripts/org/alfresco/share/pages/faceted-search/faceted-search-config.get.properties}faceted-search-config.maxFilters.description'
p473
S'V\xc3\xa6lg det maksimale antal filtre som vises for s\xc3\xb8geresultater (brugere kan v\xc3\xa6lge at vise flere filtre)'
p474
sS'{alfresco/messages/slingshot.properties}lightbox.loading'
p475
S'henter'
p476
sS'{alfresco/messages/slingshot.properties}role.Editor.description'
p477
S'TODO'
p478
sS'{alfresco/site-webscripts/org/alfresco/components/dashlets/async-rssfeed.post.properties}label.configure'
p479
S'Konfigurer'
p480
sS'{alfresco/messages/slingshot.properties}message.new-version-upload.success'
p481
S'Filen er uploadet. Forh\xc3\xa5ndsvisningen viser muligvis endnu ikke den seneste version af dokumentet - du kan genopfriske siden senere for at opdatere forh\xc3\xa5ndsvisningen'
p482
sS'{alfresco/site-webscripts/org/alfresco/components/calendar/view.get.properties}calendar.site-does-not-exist-title'
p483
S"Sitet ''{0}'' findes ikke eller ogs\xc3\xa5 har du ikke de n\xc3\xb8dvendige rettigheder til at tilg\xc3\xa5 det"
p484
sS'{alfresco/messages/slingshot.properties}role.Coordinator'
p485
S'Koordinator'
p486
sS'{alfresco/site-webscripts/org/alfresco/share/pages/faceted-search/faceted-search-config.get.properties}faceted-search-config.hitThreshold.label'
p487
S'Mindste antal resultater kr\xc3\xa6vet'
p488
sS'{alfresco/site-webscripts/org/alfresco/share/imports/document-library.lib.properties}create.text-document.label'
p489
S'Tekstdokument'
p490
sS'{alfresco/site-webscripts/org/alfresco/modules/feed/config-feed.post.properties}title.error.unsupported'
p491
S'RSS feed format er ikke underst\xc3\xb8ttet'
p492
sS'{alfresco/site-webscripts/org/alfresco/share/pages/faceted-search/faceted-search-config.get.properties}faceted-search-config.hitThreshold.description'
p493
S'V\xc3\xa6lg det mindste antal hits et filterresultat skal have for at blive vist'
p494
sS'{alfresco/site-webscripts/org/alfresco/share/imports/share-header.lib.properties}join_site_moderated.label'
p495
S'Foresp\xc3\xb8rg deltagelse'
p496
sS'{alfresco/messages/slingshot.properties}message.edit-online-aos.plugin_blocked.body.firefox'
p497
S'Tryk p\xc3\xa5 v\xc3\xa6rkt\xc3\xb8jslinjen i Firefox for at forts\xc3\xa6tte'
p498
sS'{alfresco/site-webscripts/org/alfresco/share/pages/faceted-search/faceted-search.get.properties}faceted-search.heading.facet-menu'
p499
S'Facetmenu'
p500
sS'{alfresco/messages/slingshot.properties}page.add-users.description'
p501
S'Tilf\xc3\xb8j brugere til et site'
p502
sS'{alfresco/site-webscripts/org/alfresco/components/dashlets/dynamic-welcome.get.properties}site.panel.delete.msg'
p503
S'Er du sikker p\xc3\xa5, at du vil fjerne hj\xc3\xa6lpepanelet fra instrumentbr\xc3\xa6ttet permanent?'
p504
sS'{alfresco/site-webscripts/org/alfresco/share/pages/admin-console/custom-model-manager.get.properties}cmm.button.create'
p505
S'Opret'
p506
sS'{alfresco/site-webscripts/org/alfresco/share/pages/faceted-search/faceted-search-config.get.properties}faceted-search-config.displayName.description'
p507
S'Det viste filternavn'
p508
sS'{alfresco/messages/slingshot.properties}message.details.failure.more.max.length'
p509
S'En af egenskaberne har en st\xc3\xb8rrelse, som er st\xc3\xb8rre end det tilladte.'
p510
sS'{alfresco/site-webscripts/org/alfresco/components/form/control-wrapper.post.properties}form.field.not.editable'
p511
S'Systemet har forhindret dette felt i at blive redigeret'
p512
sS'{alfresco/messages/slingshot.properties}message.take-ownership.success'
p513
S"Du er nu ejer af ''{0}''"
p514
sS'{alfresco/messages/slingshot.properties}site.visibility.label.PRIVATE'
p515
S'Privat'
p516
sS'{alfresco/site-webscripts/org/alfresco/components/calendar/view.get.properties}calendar.site-does-not-exist'
p517
S'Sitet findes ikke eller ogs\xc3\xa5 har du ikke de n\xc3\xb8dvendige rettigheder til at tilg\xc3\xa5 det'
p518
sS'{alfresco/site-webscripts/org/alfresco/share/options/faceted-search/available-facets.get.properties}facetQName.created'
p519
S'Oprettet'
p520
sS'{alfresco/site-webscripts/org/alfresco/share/pages/faceted-search/faceted-search.get.properties}faceted-search.search-form.search-field-label'
p521
S'S\xc3\xb8gefelt'
p522
sS'{alfresco/site-webscripts/org/alfresco/share/pages/faceted-search/faceted-search-config.get.properties}faceted-search-config.sortBy.highToLow.label'
p523
S'Antal resultater (h\xc3\xb8j til lav)'
p524
sS'{alfresco/site-webscripts/org/alfresco/components/title/collaboration-title.get.properties}message.site-does-not-exist'
p525
S'Det efterspurgte site findes ikke, eller ogs\xc3\xa5 har du ikke tilladelse til at tilg\xc3\xa5 det.'
p526
sS'{alfresco/site-webscripts/org/alfresco/modules/documentlibrary/copy-move-to.get.properties}unzip.message.exists.failure.file'
p527
S'Udpakningen kunne ikke fuldf\xc3\xb8res. Der findes allerede en fil med det samme navn'
p528
sS'{alfresco/site-webscripts/org/alfresco/share/options/faceted-search/available-facets.get.properties}facetQName.modifier'
p529
S'Sidst \xc3\xa6ndret af'
p530
sS'{alfresco/site-webscripts/org/alfresco/share/pages/faceted-search/faceted-search-config.get.properties}faceted-search-config.scope.label'
p531
S'Filtertilg\xc3\xa6ngelighed'
p532
sS'{alfresco/messages/slingshot.properties}actions.document.unzip-to'
p533
S'Udpak til...'
p534
sS'{alfresco/site-webscripts/org/alfresco/components/invite/invitationlist.get.properties}added-users-list.direct-add-instructions'
p535
S'Du har ikke valgt nogle brugere endnu'
p536
sS'{alfresco/site-webscripts/org/alfresco/share/pages/faceted-search/faceted-search-config.get.properties}faceted-search-config.scopedSites.site.label'
p537
S'Site-navn'
p538
sS'{alfresco/site-webscripts/org/alfresco/modules/documentlibrary/copy-move-to.get.properties}unzip.message.failure'
p539
S'Udpakningen kunne ikke fuldf\xc3\xb8res'
p540
sS'{alfresco/site-webscripts/org/alfresco/share/pages/faceted-search/faceted-search-config.get.properties}faceted-search-config.sortBy.description'
p541
S'V\xc3\xa6lg r\xc3\xa6kkef\xc3\xb8lgen, som filterresultaterne vises i.'
p542
sS'{alfresco/messages/slingshot.properties}message.confirm.take-ownership'
p543
S"Du bliver ejer af ''{0}'' og den tidligere ejer vil muligvis f\xc3\xa5 indskr\xc3\xa6nket sine rettigheder"
p544
sS'{alfresco/site-webscripts/org/alfresco/components/dashlets/dynamic-welcome.get.properties}site.panel.delete.header'
p545
S'Bekr\xc3\xa6ft fjernelse'
p546
sS'{alfresco/messages/slingshot.properties}calendar.widget_control_config.label_month'
p547
S'V\xc3\xa6lg m\xc3\xa5ned'
p548
sS'{alfresco/site-webscripts/org/alfresco/components/form/control-wrapper.post.properties}form.control.date-range.to'
p549
S'Til'
p550
sS'{alfresco/site-webscripts/org/alfresco/share/imports/document-library.lib.properties}create.html-document.title'
p551
S'Opret HTML dokument'
p552
sS'{alfresco/site-webscripts/org/alfresco/share/pages/faceted-search/faceted-search-config.get.properties}faceted-search-config.displayName.placeHolder'
p553
S'Indtast filternavn til visning'
p554
sS'{alfresco/site-webscripts/org/alfresco/share/pages/admin-console/custom-model-manager.get.properties}cmm.button.activate'
p555
S'Aktiv\xc3\xa9r'
p556
sS'{alfresco/site-webscripts/org/alfresco/modules/documentlibrary/copy-move-to.get.properties}unzip.title.multi'
p557
S'Udpak {0} objekter til...'
p558
sS'{alfresco/site-webscripts/org/alfresco/components/console/usersgroups/users.get.properties}label.authorization.deleted'
p559
S'Slettet'
p560
sS'{alfresco/site-webscripts/org/alfresco/components/form/control-wrapper.post.properties}form.control.object-picker.create-new.failure'
p561
S'Kunne ikke oprette nyt objekt.'
p562
sS'{alfresco/site-webscripts/org/alfresco/components/form/control-wrapper.post.properties}form.control.object-picker.header'
p563
S'V\xc3\xa6lg...'
p564
sS'{alfresco/messages/slingshot.properties}actions.document.cancel-editing-unlock'
p565
S'L\xc3\xa5s dokument op'
p566
sS'{alfresco/site-webscripts/org/alfresco/components/console/cloud-sync-management.get.properties}button.ssd-reassign.cancel-label'
p567
S'Annuller'
p568
sS'{alfresco/site-webscripts/org/alfresco/components/invite/invitationlist.get.properties}message.failure-adding-users'
p569
S'{0} bruger(e) kunne ikke tilf\xc3\xb8jes'
p570
sS'{alfresco/site-webscripts/org/alfresco/share/pages/faceted-search/faceted-search-config.get.properties}faceted-search-config.facetQName.label'
p571
S'Filteregenskab'
p572
sS'{alfresco/site-webscripts/org/alfresco/share/imports/document-library.lib.properties}create.folder.label'
p573
S'Mappe'
p574
sS'{alfresco/site-webscripts/org/alfresco/share/pages/faceted-search/faceted-search-config.get.properties}faceted-search-config.displayName.label'
p575
S'Filternavn'
p576
sS'{alfresco/site-webscripts/org/alfresco/components/form/control-wrapper.post.properties}form.control.object-picker.create-new.success'
p577
S'Oprettede nyt object "{0}"'
p578
sS'{alfresco/site-webscripts/org/alfresco/modules/documentlibrary/copy-move-to.get.properties}unzip.message.exists.failure.folder'
p579
S'Udpakningen kunne ikke fuldf\xc3\xb8res. Der findes allerede en mappe med det samme navn'
p580
sS'{alfresco/site-webscripts/org/alfresco/components/form/control-wrapper.post.properties}form.button.submit.label'
p581
S'Send'
p582
sS'{alfresco/messages/slingshot.properties}role.Contributor.description'
p583
S'TODO'
p584
sS'{alfresco/site-webscripts/org/alfresco/components/dashboard/customise-dashlets.get.properties}label.keyboard-instruction1'
p585
S'Ved brug af tastetur: brug tabulatortasten for at navigere til n\xc3\xa6ste instrument. V\xc3\xa6lg dashletten og tryk retur for at tilf\xc3\xb8je instrumentet til kolonne. Tryk escape for at frav\xc3\xa6lge et objekt'
p586
sS'{alfresco/site-webscripts/org/alfresco/components/form/control-wrapper.post.properties}form.control.association.message.empty'
p587
S'Fandt ikke nogle objekter'
p588
sS'{alfresco/site-webscripts/org/alfresco/components/console/module-package.get.properties}module-package.description'
p589
S'Beskrivelse'
p590
sS'{alfresco/site-webscripts/org/alfresco/components/form/control-wrapper.post.properties}form.control.checkbox.yes'
p591
S'Ja'
p592
sS'{alfresco/site-webscripts/org/alfresco/share/imports/share-header.lib.properties}set_current_page_as_home.label'
p593
S'Anvend nuv\xc3\xa6rende side'
p594
sS'{alfresco/site-webscripts/org/alfresco/components/console/usersgroups/users.get.properties}deauthorize.dialog.checkbox.message'
p595
S'Jeg er indforst\xc3\xa5et med, at brugerens autorisation ikke kan tildeles igen, n\xc3\xa5r f\xc3\xb8rst den er fjernet'
p596
sS'{alfresco/site-webscripts/org/alfresco/share/options/faceted-search/available-facets-controls.get.properties}facet.rendering.control.simple'
p597
S'Simpelt filter'
p598
sS'{alfresco/site-webscripts/org/alfresco/share/pages/faceted-search/faceted-search.get.properties}faceted-search.heading.search-form'
p599
S'S\xc3\xb8geformular'
p600
sS'{alfresco/site-webscripts/org/alfresco/share/pages/faceted-search/faceted-search-config.get.properties}faceted-search-config.delete.altText'
p601
S"Klik for at slette '{0}'"
p602
sS'{alfresco/messages/slingshot.properties}hybridsync.cloud-user-header-label'
p603
S'Bruger i skyen'
p604
sS'{alfresco/site-webscripts/org/alfresco/components/form/control-wrapper.post.properties}form.control.encoding.unknown'
p605
S'Ukendt'
p606
sS'{alfresco/messages/slingshot.properties}page.add-users.title'
p607
S'Tilf\xc3\xb8j brugere'
p608
sS'{alfresco/messages/slingshot.properties}calendar.widget_control_config.label_invalid_year'
p609
S'Indtast venligst et gyldigt \xc3\xa5rstal'
p610
sS'{alfresco/messages/slingshot.properties}site.visibility.description.PRIVATE'
p611
S'Kun brugere, som er tilf\xc3\xb8jet af en siteadministrator, kan finde og bruge dette site'
p612
sS'{alfresco/site-webscripts/org/alfresco/components/dashlets/activity-list.get.properties}more.activities'
p613
S'{0} aktiviter til'
p614
sS'{alfresco/site-webscripts/org/alfresco/components/form/control-wrapper.post.properties}form.control.object-picker.items-list.search'
p615
S'Indtast s\xc3\xb8geterm'
p616
sS'{alfresco/messages/slingshot.properties}actions.document.take-ownership'
p617
S'Bliv ejer'
p618
sS'{alfresco/site-webscripts/org/alfresco/share/pages/faceted-search/faceted-search.get.properties}faceted-search.results.heading.thumbnail'
p619
S'Resultat-thumbnail'
p620
sS'{alfresco/site-webscripts/org/alfresco/components/console/usersgroups/users.get.properties}label.authorization.isdeleted'
p621
S'Slettet?'
p622
sS'{alfresco/site-webscripts/org/alfresco/share/options/faceted-search/available-facets.get.properties}facetQName.size'
p623
S'St\xc3\xb8rrelse'
p624
sS'{alfresco/messages/slingshot.properties}aspect.exif_resolution'
p625
S'Opl\xc3\xb8sning'
p626
sS'{alfresco/site-webscripts/org/alfresco/share/imports/document-library.lib.properties}doclib.fullwindow.label'
p627
S'Hele vinduet'
p628
sS'{alfresco/site-webscripts/org/alfresco/share/pages/faceted-search/faceted-search.get.properties}faceted-search.show-advanced-search.label'
p629
S'Vis avanceret s\xc3\xb8gning'
p630
sS'{alfresco/site-webscripts/org/alfresco/share/pages/admin-console/custom-model-manager.get.properties}cmm.button.cancel'
p631
S'Annuller'
p632
s(lp633
g577
ag219
ag477
ag351
ag133
ag121
ag211
ag67
ag473
ag541
ag79
ag47
ag15
ag51
ag53
ag429
ag247
aS'{alfresco/site-webscripts/org/alfresco/share/imports/document-library.lib.properties}show-sidebar.label'
p634
ag207
ag451
ag389
ag145
ag503
ag157
aS'{alfresco/site-webscripts/org/alfresco/components/form/control-wrapper.post.properties}form.field.incomplete'
p635
ag189
ag509
ag27
ag561
ag209
ag427
ag487
ag57
ag583
ag455
atp636
.