((dp0
S'{alfresco/site-webscripts/org/alfresco/share/pages/faceted-search/faceted-search.get.properties}faceted-search-config.label'
p1
S'Konfiguration af facets\\u00f8gning'
p2
sS'{alfresco/messages/slingshot.properties}role.SiteManager.description'
p3
S'har fulde rettigheder til alt indhold p\xc3\xa5 sitet - b\xc3\xa5de det, som de selv og andre har oprettet'
p4
sS'{alfresco/site-webscripts/org/alfresco/modules/feed/config-feed.post.properties}title.error.unavailable'
p5
S'RSS feed er ikke tilg\\u00e6ngelig'
p6
sS'{alfresco/site-webscripts/org/alfresco/share/options/faceted-search/available-facets.get.properties}facetQName.modifier'
p7
S'Sidst \xc3\xa6ndret af'
p8
sS'{alfresco/site-webscripts/org/alfresco/share/imports/document-library.lib.properties}create.content.name.label'
p9
S'Navn'
p10
sS'{alfresco/site-webscripts/org/alfresco/components/invite/members-bar.get.properties}link.add-users'
p11
S'Tilf\xc3\xb8j brugere'
p12
sS'{alfresco/site-webscripts/org/alfresco/components/dashlets/async-rssfeed.post.properties}title.error.unavailable'
p13
S'RSS feed er ikke tilg\\u00e6ngelig'
p14
sS'{alfresco/messages/slingshot.properties}role.SiteCollaborator.description'
p15
S'har fulde rettigheder til site-indholdet, de ejer; de har rettigheder til redigere, men ikke slette indhold, som er oprettet af andre site-medlemmer.'
p16
sS'{alfresco/site-webscripts/org/alfresco/modules/cloud/cloud-auth-form.get.properties}label.signup'
p17
S'Ingen konto? Tilmeld dig gratis'
p18
sS'{alfresco/site-webscripts/org/alfresco/modules/cloud/cloud-sync-status.get.properties}sync.status.unknown-location.no-permissions'
p19
S'Du har ikke rettigheder til at se detaljer for nodes'
p20
sS'{alfresco/site-webscripts/org/alfresco/components/form/control-wrapper.post.properties}form.control.checkbox.no'
p21
S'Nej'
p22
sS'{alfresco/messages/slingshot.properties}label.trademark'
p23
S'Simpelt + Smart'
p24
sS'{alfresco/site-webscripts/org/alfresco/components/dashboard/customise-dashlets.get.properties}dashlet.site-content-report.description'
p25
S'Viser sitets forskellige typer grafisk'
p26
sS'{alfresco/messages/slingshot.properties}hybridsync.ssd-failed-reason-header-label'
p27
S'Synkroniseringsfejltype'
p28
sS'{alfresco/site-webscripts/org/alfresco/share/pages/faceted-search/faceted-search-config.get.properties}faceted-search-config.isDefault.label'
p29
S'Standard filter'
p30
sS'{alfresco/site-webscripts/org/alfresco/share/pages/faceted-search/faceted-search.get.properties}faceted-search.results.caption'
p31
S'S\xc3\xb8geresultater'
p32
sS'{alfresco/site-webscripts/org/alfresco/components/console/usersgroups/users.get.properties}reauthorize.dialog.message'
p33
S'Giv den f\xc3\xb8lgende autorisationskode til Alfresco Support teamet \\"<b>{0}</b>\\". De vil give dig en fil, som du kan uploade.'
p34
sS'{alfresco/site-webscripts/org/alfresco/share/pages/faceted-search/faceted-search-config.get.properties}faceted-search-config.maxFilters.label'
p35
S'Antal filtre'
p36
sS'{alfresco/site-webscripts/org/alfresco/modules/cloud/cloud-auth-form.get.properties}label.forgot-password'
p37
S'Glemt password?'
p38
sS'{alfresco/site-webscripts/org/alfresco/share/pages/faceted-search/faceted-search-config.get.properties}faceted-search-config.filterId.placeHolder'
p39
S'Indtast et unikt filter ID'
p40
sS'{alfresco/site-webscripts/org/alfresco/components/form/control-wrapper.post.properties}form.control.object-picker.search.enter-more'
p41
S'Indtast mindst {0} tegn for at s\xc3\xb8ge'
p42
sS'{alfresco/site-webscripts/org/alfresco/share/imports/share-header.lib.properties}group.set_status.label'
p43
S'Status'
p44
sS'{alfresco/site-webscripts/org/alfresco/components/people-finder/people-finder.get.properties}message.results'
p45
S'S\xc3\xb8gning efter \\"{0}\\" fandt {1} resultater.'
p46
sS'{alfresco/site-webscripts/org/alfresco/components/console/usersgroups/users.get.properties}label.authorization.status.DEAUTHORIZED'
p47
S'De-autoriseret'
p48
sS'{alfresco/site-webscripts/org/alfresco/share/pages/faceted-search/faceted-search.get.properties}faceted-search.select-search-form.label'
p49
S'V\xc3\xa6lg formular til avanceret s\xc3\xb8gning'
p50
sS'{alfresco/site-webscripts/org/alfresco/share/imports/document-library.lib.properties}create.folder.title'
p51
S'Opret mappe'
p52
sS'{alfresco/site-webscripts/org/alfresco/components/console/usersgroups/users.get.properties}reauthorize.dialog.title'
p53
S'Re-autoriser brugeren \\"{0}\\"'
p54
sS'{alfresco/site-webscripts/org/alfresco/modules/documentlibrary/copy-move-to.get.properties}unzip.title.multi'
p55
S'Udpak {0} objekter til...'
p56
sS'{alfresco/site-webscripts/org/alfresco/modules/cloud/cloud-sync-status.get.properties}sync.status.unknown-location.cause'
p57
S'\xc3\x85rsag'
p58
sS'{alfresco/site-webscripts/org/alfresco/components/dashlets/async-rssfeed.post.properties}title.error.unsupported'
p59
S'RSS feed format er ikke underst\xc3\xb8ttet'
p60
sS'{alfresco/site-webscripts/org/alfresco/share/imports/share-header.lib.properties}header.menu.user_dashboard.label'
p61
S'Instrumentbr\xc3\xa6t'
p62
sS'{alfresco/site-webscripts/org/alfresco/components/form/control-wrapper.post.properties}form.control.object-picker.create-new'
p63
S'Opret nyt objekt'
p64
sS'{alfresco/site-webscripts/org/alfresco/share/imports/document-library.lib.properties}selected-items.label'
p65
S'Valgte objekter...'
p66
sS'{alfresco/site-webscripts/org/alfresco/components/form/control-wrapper.post.properties}form.control.association.message.searching'
p67
S'S\xc3\xb8ger...'
p68
sS'{alfresco/site-webscripts/org/alfresco/components/form/control-wrapper.post.properties}form.field.constraint.length'
p69
S'Dette felt skal indeholde mellem {0} og {1} tegn'
p70
sS'{alfresco/site-webscripts/org/alfresco/share/options/faceted-search/available-facets.get.properties}facetQName.description'
p71
S'Beskrivelse'
p72
sS'{alfresco/messages/slingshot.properties}actions.document.cancel-editing-unlock'
p73
S'L\xc3\xa5s dokument op'
p74
sS'{alfresco/site-webscripts/org/alfresco/components/console/usersgroups/users.get.properties}label.authorization'
p75
S'Autorisationstilstand'
p76
sS'{alfresco/site-webscripts/org/alfresco/share/pages/faceted-search/faceted-search-config.get.properties}faceted-search-config.filterId.error.invalid'
p77
S'Du kan ikke gemme et filter ID, som slutter med et punktum eller indeholder nogle af tegnene  " * \\ < > ? / : | %'
p78
sS'{alfresco/site-webscripts/org/alfresco/share/pages/faceted-search/faceted-search-config.get.properties}faceted-search-config.sortBy.index.label'
p79
S'Serverdefineret indeks'
p80
sS'{alfresco/site-webscripts/org/alfresco/components/comments/comments-list.get.properties}link.help'
p81
S'Tasteturgenveje: Fed (Ctrl+B), Kursiv (Ctrl+I), Understreg (Ctrl+U), Fortryd (Ctrl+Z), Omg\xc3\xb8r (Ctrl+Y)'
p82
sS'{alfresco/site-webscripts/org/alfresco/components/form/control-wrapper.post.properties}form.field.constraint.minmax'
p83
S'Dette felt skal have en v\xc3\xa6rdi mellem {0} og {1}'
p84
sS'{alfresco/messages/slingshot.properties}message.edit-online-aos.edit_offline_locked.cancel'
p85
S'Annuller'
p86
sS'{alfresco/site-webscripts/org/alfresco/components/form/control-wrapper.post.properties}form.control.object-picker.description'
p87
S'Beskrivelse'
p88
sS'{alfresco/site-webscripts/org/alfresco/components/tag-filter/tag-filter.get.properties}message.refresh.failure.forbidden'
p89
S'Tags er kun synlige for medlemmer af sitet'
p90
sS'{alfresco/messages/slingshot.properties}message.edit-online.supported_office_version_required'
p91
S'Du bruger en version af Microsoft Office, som ikke er underst\xc3\xb8ttet af Alfresco. Pr\xc3\xb8v at opdatere Microsoft Office. Office 2007 og 2008 virker ikke med Google Chrome.'
p92
sS'{alfresco/site-webscripts/org/alfresco/components/dashlets/dynamic-welcome.get.properties}user.panel.delete.header'
p93
S'Skjul panelet?'
p94
sS'{alfresco/site-webscripts/org/alfresco/share/pages/faceted-search/faceted-search-config.get.properties}faceted-search-config.sortBy.lowToHigh.label'
p95
S'Antal resultater (lav til h\xc3\xb8j)'
p96
sS'{alfresco/site-webscripts/org/alfresco/share/pages/faceted-search/faceted-search-config.get.properties}faceted-search-config.displayControl.label'
p97
S'Filtertype'
p98
sS'{alfresco/site-webscripts/org/alfresco/components/form/control-wrapper.post.properties}form.control.date-picker.entry.date.format'
p99
S'd/M/yyyy'
p100
sS'{alfresco/site-webscripts/org/alfresco/share/pages/faceted-search/faceted-search.get.properties}faceted-search.heading.sort-menu'
p101
S'Sorteringsmenu'
p102
sS'{alfresco/site-webscripts/org/alfresco/components/dashlets/dynamic-welcome.get.properties}user.welcome.close'
p103
S'Skjul'
p104
sS'{alfresco/site-webscripts/org/alfresco/components/console/usersgroups/users.get.properties}label.authorization.status.NEVER_AUTHORIZED'
p105
S'Aldrig autoriseret'
p106
sS'{alfresco/site-webscripts/org/alfresco/components/console/cloud-sync-management.get.properties}manage-syncset-defs.page.title'
p107
S'H\xc3\xa5ndter synkronisering til skyen'
p108
sS'{alfresco/site-webscripts/org/alfresco/components/dashboard/customise-dashlets.get.properties}header.welcomePreference'
p109
S'Kom godt i gang'
p110
sS'{alfresco/messages/slingshot.properties}roles-tooltip.docs-url'
p111
S'http://docs.alfresco.com/{0}/references/permissions_share.html'
p112
sS'{alfresco/site-webscripts/org/alfresco/share/pages/faceted-search/faceted-search-config.get.properties}faceted-search-config.sortBy.label'
p113
S'Sort\xc3\xa9r efter'
p114
sS'{alfresco/messages/slingshot.properties}message.edit-online-aos.edit_offline_locked.title'
p115
S'{0} er ved redigere denne fil'
p116
sS'{alfresco/site-webscripts/org/alfresco/share/pages/faceted-search/faceted-search-config.get.properties}faceted-search-config.minFilterValueLength.label'
p117
S'Minimal filterl\xc3\xa6ngde'
p118
sS'{alfresco/site-webscripts/org/alfresco/share/pages/admin-console/custom-model-manager.get.properties}cmm.button.activate'
p119
S'Aktiv\xc3\xa9r'
p120
sS'{alfresco/site-webscripts/org/alfresco/components/dashlets/async-rssfeed.post.properties}title.error.bad_data'
p121
S'RSS feed kan ikke l\xc3\xa6ses'
p122
sS'{alfresco/site-webscripts/org/alfresco/share/imports/document-library.lib.properties}upload.label'
p123
S'Upload'
p124
sS'{alfresco/site-webscripts/org/alfresco/components/title/collaboration-title.get.properties}message.site-does-not-exist-title'
p125
S"Sitet ''{0}'' findes ikke, eller ogs\xc3\xa5 har du ikke tilladelse til at tilg\xc3\xa5 det"
p126
sS'{alfresco/site-webscripts/org/alfresco/components/form/control-wrapper.post.properties}form.field.help'
p127
S'Klik for at vise/skjule hj\xc3\xa6lpeteksten for dette felt'
p128
sS'{alfresco/site-webscripts/org/alfresco/components/form/control-wrapper.post.properties}form.field.incomplete'
p129
S'Dette felt er obligatorisk, men en v\xc3\xa6rdi er ikke anf\xc3\xb8rt'
p130
sS'{alfresco/site-webscripts/org/alfresco/components/dashlets/async-rssfeed.post.properties}dashlet.help'
p131
S'Instrumentet viser det RSS feed, som du \xc3\xb8nsker. Klik p\xc3\xa5 redigeringsikonet p\xc3\xa5 instrumentet for at skifte feed.'
p132
sS'{alfresco/site-webscripts/org/alfresco/components/form/control-wrapper.post.properties}form.control.date-range.to'
p133
S'Til'
p134
sS'{alfresco/messages/slingshot.properties}button.take-ownership'
p135
S'OK'
p136
sS'{alfresco/site-webscripts/org/alfresco/components/invite/instructions-bar.get.properties}instructions-bar.instructions-text'
p137
S'Find og v\xc3\xa6lg brugere, tildel dem roller og tilf\xc3\xb8j dem til dette site'
p138
sS'{alfresco/site-webscripts/org/alfresco/components/console/usersgroups/users.get.properties}reauthorize.dialog.success'
p139
S'Re-autorisation lykkedes'
p140
sS'{alfresco/site-webscripts/org/alfresco/share/pages/faceted-search/faceted-search-config.get.properties}faceted-search-config.filterId.error.isUse'
p141
S'Dette filter ID er allerede blevet brugt'
p142
sS'{alfresco/site-webscripts/org/alfresco/components/form/control-wrapper.post.properties}form.control.object-picker.selected-items.empty'
p143
S'Ingen objekter valgt'
p144
sS'{alfresco/site-webscripts/org/alfresco/components/form/control-wrapper.post.properties}form.control.object-picker.create-new.success'
p145
S'Oprettede nyt object "{0}"'
p146
sS'{alfresco/site-webscripts/org/alfresco/share/pages/admin-console/custom-model-manager.get.properties}cmm.button.back-to-models'
p147
S'<< Vis modeller'
p148
sS'{alfresco/site-webscripts/org/alfresco/components/documentlibrary/tree.get.properties}message.refresh.failure.forbidden'
p149
S'Biblioteket er kun synligt for medlemmer af sitet'
p150
sS'{alfresco/site-webscripts/org/alfresco/share/pages/faceted-search/faceted-search-config.get.properties}faceted-search-config.isEnabled.yes'
p151
S'Ja'
p152
sS'{alfresco/site-webscripts/org/alfresco/components/form/control-wrapper.post.properties}form.button.cancel.label'
p153
S'Annuller'
p154
sS'{alfresco/messages/slingshot.properties}site.visibility.description.MODERATED'
p155
S'Alle i din organisation kan finde dette site og bede om adgang. Adgang kan gives af siteadministratorer.'
p156
sS'{alfresco/site-webscripts/org/alfresco/share/pages/faceted-search/faceted-search-config.get.properties}faceted-search-config.displayName.placeHolder'
p157
S'Indtast filternavn til visning'
p158
sS'{alfresco/site-webscripts/org/alfresco/modules/wiki/config-wiki.post.properties}message.nopage'
p159
S'Ingen sider er konfigureret'
p160
sS'{alfresco/site-webscripts/org/alfresco/components/console/usersgroups/users.get.properties}deauthorize.dialog.cannot.deauthorize.admin'
p161
S'Du kan ikke fjerne autorisationen fra administratorer'
p162
sS'{alfresco/site-webscripts/org/alfresco/components/form/control-wrapper.post.properties}form.control.date-picker.view.time.format'
p163
S'EEE dd MMM yyyy HH:mm:ss'
p164
sS'{alfresco/site-webscripts/org/alfresco/components/form/control-wrapper.post.properties}form.field.ambiguous'
p165
S'er flertydig, kontakt venligst din systemadministrator for at fjerne denne besked'
p166
sS'{alfresco/messages/slingshot.properties}message.take-ownership.failure'
p167
S"Kunne ikke blive ejer af ''{0}''"
p168
sS'{alfresco/site-webscripts/org/alfresco/components/form/control-wrapper.post.properties}form.control.novalue'
p169
S'(tom)'
p170
sS'{alfresco/site-webscripts/org/alfresco/components/form/control-wrapper.post.properties}form.control.period.type'
p171
S'Periode'
p172
sS'{alfresco/site-webscripts/org/alfresco/share/pages/faceted-search/faceted-search-config.get.properties}faceted-search-config.scope.description'
p173
S'V\xc3\xa6lg, hvor filtret skal v\xc3\xa6re tilg\xc3\xa6ngeligt'
p174
sS'{alfresco/site-webscripts/org/alfresco/share/pages/faceted-search/faceted-search-config.get.properties}faceted-search-config.minFilterValueLength.description'
p175
S'V\xc3\xa6lg kun at vise filterresultater med et vidst antal karakterer, s\xc3\xa5 du kan ekskludere korte ord som \xe2\x80\x9dog\xe2\x80\x9d og \xe2\x80\x9dtil\xe2\x80\x9d fra filterresultaterne'
p176
sS'{alfresco/site-webscripts/org/alfresco/components/dashboard/customise-dashlets.get.properties}welcomePanel.disabled'
p177
S'Skjul fra instrumentbr\xc3\xa6t'
p178
sS'{alfresco/site-webscripts/org/alfresco/components/form/control-wrapper.post.properties}form.control.object-picker.items-list.search'
p179
S'Indtast s\xc3\xb8geterm'
p180
sS'{alfresco/site-webscripts/org/alfresco/modules/documentlibrary/copy-move-to.get.properties}unzip.message.please-wait'
p181
S'Filer udpakkes...'
p182
sS'{alfresco/messages/slingshot.properties}hybridsync.path-desc-header-label'
p183
S'Oprindelig placering af objekt'
p184
sS'{alfresco/site-webscripts/org/alfresco/share/pages/faceted-search/faceted-search-config.get.properties}faceted-search-config.scopedSites.label'
p185
S'Sites'
p186
sS'{alfresco/messages/slingshot.properties}role.Editor'
p187
S'Redakt\xc3\xb8r'
p188
sS'{alfresco/site-webscripts/org/alfresco/components/form/control-wrapper.post.properties}form.control.size.label'
p189
S'St\xc3\xb8rrelse'
p190
sS'{alfresco/site-webscripts/org/alfresco/components/console/usersgroups/users.get.properties}reauthorize.dialog.fail'
p191
S'Reautorisation fejlet (autorisationskoden blev ikke accepteret eller der opstod en fejl p\xc3\xa5 serveren)'
p192
sS'{alfresco/messages/slingshot.properties}hybridsync.sync-creator-header-label'
p193
S'Opretter af synkronisering'
p194
sS'{alfresco/site-webscripts/org/alfresco/components/invite/invitationlist.get.properties}invitationlist.addDirect.title'
p195
S'V\xc3\xa6lg brugerrolle'
p196
sS'{alfresco/messages/slingshot.properties}calendar.widget_control_config.label_year'
p197
S'Indtast \xc3\xa5rstal'
p198
sS'{alfresco/site-webscripts/org/alfresco/share/pages/faceted-search/faceted-search-config.get.properties}faceted-search-config.delete.confirmationPrompt'
p199
S"Er du sikker p\xc3\xa5, at du vil slette '{filterID}'?"
p200
sS'{alfresco/messages/slingshot.properties}tool.module-package.label'
p201
S'Modulbrowser'
p202
sS'{alfresco/messages/slingshot.properties}lightbox.close'
p203
S'luk'
p204
sS'{alfresco/site-webscripts/org/alfresco/components/invite/added-users-list.get.properties}added-users-list.add-button-text'
p205
S'Tilf\xc3\xb8j brugere'
p206
sS'{alfresco/site-webscripts/org/alfresco/share/imports/share-header.lib.properties}group.home_page.label'
p207
S'Hjem'
p208
sS'{alfresco/site-webscripts/org/alfresco/components/form/control-wrapper.post.properties}form.control.date-picker.display.time.format'
p209
S'HH:MM (24 timer)'
p210
sS'{alfresco/messages/slingshot.properties}tool.module-package.description'
p211
S'Modulbrowser'
p212
sS'{alfresco/messages/slingshot.properties}role.Consumer.description'
p213
S'har kun rettigheder til at l\xc3\xa6se; de kan ikke oprette deres eget indhold.'
p214
sS'{alfresco/site-webscripts/org/alfresco/components/console/cloud-sync-management.get.properties}button.ssd-reassign.applyFilter.label'
p215
S'Anvend filter'
p216
sS'{alfresco/site-webscripts/org/alfresco/components/form/control-wrapper.post.properties}form.notset'
p217
S'Ikke anf\xc3\xb8rt'
p218
sS'{alfresco/site-webscripts/org/alfresco/components/dashboard/customise-dashlets.get.properties}dashlet.top-site-contributor-report.description'
p219
S'Viser, hvem der har bidraget mest til sitet.'
p220
sS'{alfresco/site-webscripts/org/alfresco/components/invite/invitationlist.get.properties}message.failure-adding-users'
p221
S'{0} bruger(e) kunne ikke tilf\xc3\xb8jes'
p222
sS'{alfresco/messages/slingshot.properties}message.unlock-document.success'
p223
S"''{0}'' er l\xc3\xa5st op for redigering"
p224
sS'{alfresco/site-webscripts/org/alfresco/components/form/control-wrapper.post.properties}form.field.constraint.number'
p225
S'Dette felt skal indeholde et tal'
p226
sS'{alfresco/messages/slingshot.properties}role.Collaborator'
p227
S'Samarbejdspartner'
p228
sS'{alfresco/messages/slingshot.properties}role.SiteConsumer.description'
p229
S'har kun l\xc3\xa6serettigheder p\xc3\xa5 et site; de kan ikke oprette deres eget indhold.'
p230
sS'{alfresco/site-webscripts/org/alfresco/share/pages/faceted-search/faceted-search-config.get.properties}faceted-search-config.scopedSites.description'
p231
S'Tilf\xc3\xb8j og v\xc3\xa6lg sites, som filtret skal v\xc3\xa6re tilg\xc3\xa6ngeligt for'
p232
sS'{alfresco/site-webscripts/org/alfresco/components/console/usersgroups/users.get.properties}label.authorization.status.AUTHORIZED'
p233
S'Autoriseret'
p234
sS'{alfresco/site-webscripts/org/alfresco/share/imports/document-library.lib.properties}show-path.label'
p235
S'Vis sti'
p236
sS'{alfresco/site-webscripts/org/alfresco/components/form/control-wrapper.post.properties}form.not.present'
p237
S"En formular kunne ikke findes. Er 'itemKind' og 'itemId' anf\xc3\xb8rt?"
p238
sS'{alfresco/site-webscripts/org/alfresco/components/console/usersgroups/users.get.properties}deauthorize.dialog.header'
p239
S'Er du sikker p\xc3\xa5, at du vil de-autorisere <b>\\"{0}\\"</b>?'
p240
sS'{alfresco/site-webscripts/org/alfresco/components/invite/invitationlist.get.properties}added-users-list.tally'
p241
S'Antal brugere tilf\xc3\xb8jet {0}'
p242
sS'{alfresco/messages/slingshot.properties}message.edit-online-aos.edit_offline_locked.confirm'
p243
S'Forts\xc3\xa6t'
p244
sS'{alfresco/site-webscripts/org/alfresco/components/dashboard/customise-dashlets.get.properties}welcomePanel.enabled'
p245
S'Vis p\xc3\xa5 instrumentbr\xc3\xa6t'
p246
sS'{alfresco/messages/slingshot.properties}aspect.exif_camera'
p247
S'Kameradetaljer'
p248
sS'{alfresco/messages/slingshot.properties}role.Consumer'
p249
S'Konsument'
p250
sS'{alfresco/site-webscripts/org/alfresco/components/console/module-package.get.properties}module-package.version'
p251
S'Version'
p252
sS'{alfresco/site-webscripts/org/alfresco/share/pages/admin-console/custom-model-manager.get.properties}cmm.button.back-to-types-propertygroups'
p253
S'<< Vis typer og aspekter'
p254
sS'{alfresco/site-webscripts/org/alfresco/share/imports/document-library.lib.properties}create.text-document.title'
p255
S'Opret tekstdokument'
p256
sS'{alfresco/messages/slingshot.properties}site.visibility.label.MODERATED'
p257
S'Modereret'
p258
sS'{alfresco/site-webscripts/org/alfresco/components/form/control-wrapper.post.properties}form.default.set.label'
p259
S'Standard v\xc3\xa6rdi'
p260
sS'{alfresco/messages/slingshot.properties}actions.folder.take-ownership'
p261
S'Bliv ejer'
p262
sS'{alfresco/site-webscripts/org/alfresco/modules/documentlibrary/copy-move-to.get.properties}unzip.button'
p263
S'Udpak'
p264
sS'{alfresco/site-webscripts/org/alfresco/share/pages/faceted-search/faceted-search.get.properties}faceted-search.heading.search-results-list'
p265
S'Resultater'
p266
sS'{alfresco/site-webscripts/org/alfresco/share/imports/document-library.lib.properties}create.xml-document.title'
p267
S'Opret XML-dokument'
p268
sS'{alfresco/site-webscripts/org/alfresco/share/imports/share-header.lib.properties}set_dashboard_as_home.label'
p269
S'Brug mit instrumentbr\xc3\xa6t'
p270
sS'{alfresco/site-webscripts/org/alfresco/components/form/control-wrapper.post.properties}form.control.object-picker.current.failure'
p271
S'Kunne ikke vise nuv\xc3\xa6rende v\xc3\xa6rdier'
p272
sS'{alfresco/site-webscripts/org/alfresco/share/pages/faceted-search/faceted-search-config.get.properties}faceted-search-config.facetQName.description'
p273
S'V\xc3\xa6lg egenskab at filtrere efter'
p274
sS'{alfresco/site-webscripts/org/alfresco/components/form/control-wrapper.post.properties}form.control.object-picker.remove-item'
p275
S'Fjern'
p276
sS'{alfresco/site-webscripts/org/alfresco/components/form/control-wrapper.post.properties}error.configuration'
p277
S'Denne komponent er ikke konfigureret korrekt'
p278
sS'{alfresco/site-webscripts/org/alfresco/share/pages/faceted-search/faceted-search-config.get.properties}faceted-search-config.filterId.description'
p279
S'Det unikke id for dette s\xc3\xb8gefilter'
p280
sS'{alfresco/site-webscripts/org/alfresco/share/imports/share-header.lib.properties}group.other.label'
p281
S'Generelt'
p282
sS'{alfresco/site-webscripts/org/alfresco/components/dashboard/customise-dashlets.get.properties}dashlet.site-content-report.shortName'
p283
S'Filetypeoversigt for sitet'
p284
sS'{alfresco/site-webscripts/org/alfresco/share/imports/document-library.lib.properties}pagination.options.label'
p285
S'Resultater pr. side'
p286
sS'{alfresco/messages/slingshot.properties}role.Coordinator.description'
p287
S'har fulde rettigheder til alt indhold - b\xc3\xa5de det, som de selv og andre har oprettet'
p288
sS'{alfresco/site-webscripts/org/alfresco/share/pages/faceted-search/faceted-search.get.properties}faceted-search.show-more-results.label'
p289
S'Vis flere resultater'
p290
sS'{alfresco/site-webscripts/org/alfresco/modules/documentlibrary/copy-move-to.get.properties}unzip.message.no-files'
p291
S'Der skal mindst tilf\xc3\xb8jes en fil, som skal udpakkes'
p292
sS'{alfresco/site-webscripts/org/alfresco/modules/feed/config-feed.post.properties}title.error.bad_data'
p293
S'RSS feed kan ikke l\xc3\xa6ses'
p294
sS'{alfresco/site-webscripts/org/alfresco/share/imports/document-library.lib.properties}create.html-document.label'
p295
S'HTML-dokument'
p296
sS'{alfresco/site-webscripts/org/alfresco/components/form/control-wrapper.post.properties}form.jsonsubmit.failed'
p297
S'Kunne ikke sende JSON data'
p298
sS'{alfresco/site-webscripts/org/alfresco/components/form/control-wrapper.post.properties}form.control.association.message.instructions'
p299
S'Indtast s\xc3\xb8geterm'
p300
sS'{alfresco/messages/slingshot.properties}message.unlock-document.failure'
p301
S"Kunne ikke l\xc3\xa5se ''{0}'' op."
p302
sS'{alfresco/site-webscripts/org/alfresco/components/console/cloud-sync-management.get.properties}button.ssd-reassign.label'
p303
S'Bliv ejer'
p304
sS'{alfresco/messages/slingshot.properties}roles-tooltip.header'
p305
S'Om roller'
p306
sS'{alfresco/messages/slingshot.properties}role.Collaborator.description'
p307
S'har fulde rettigheder til indholdet, de ejer; de har rettigheder til at redigere, men ikke slette indhold, som er oprette af andre brugere.'
p308
sS'{alfresco/site-webscripts/org/alfresco/share/pages/faceted-search/faceted-search-config.get.properties}faceted-search-config.isEnabled.label'
p309
S'Vis med s\xc3\xb8geresultater'
p310
sS'{alfresco/site-webscripts/org/alfresco/components/form/control-wrapper.post.properties}form.control.association.message.error'
p311
S'Ikke muligt at udf\xc3\xb8re s\xc3\xb8gning'
p312
sS'{alfresco/messages/slingshot.properties}site.visibility.label.PUBLIC'
p313
S'Offentlig'
p314
sS'{alfresco/site-webscripts/org/alfresco/components/form/control-wrapper.post.properties}form.control.date-range.from'
p315
S'Fra'
p316
sS'{alfresco/site-webscripts/org/alfresco/components/form/control-wrapper.post.properties}form.control.date-picker.choose'
p317
S'V\xc3\xa6lg en dato:'
p318
sS'{alfresco/site-webscripts/org/alfresco/components/dashboard/customise-dashlets.get.properties}dashlet.top-site-contributor-report.shortName'
p319
S'Bidragsyderoversigt for sitet'
p320
sS'{alfresco/site-webscripts/org/alfresco/components/form/control-wrapper.post.properties}form.control.date-picker.entry.datetime.format.nojs'
p321
S'YYYY-MM-DDThh:mm:ss.sTZD'
p322
sS'{alfresco/messages/slingshot.properties}site.visibility.label.PRIVATE'
p323
S'Privat'
p324
sS'{alfresco/site-webscripts/org/alfresco/components/dashlets/dynamic-welcome.get.properties}site.welcome.close'
p325
S'Fjern'
p326
sS'{alfresco/messages/slingshot.properties}message.edit-online-aos.edit_offline_locked.message'
p327
S'Dine \xc3\xa6ndringer vil muligvis g\xc3\xa5 tabt'
p328
sS'{alfresco/site-webscripts/org/alfresco/components/console/module-package.get.properties}module-package.page.title'
p329
S'Modulbrowser'
p330
sS'{alfresco/site-webscripts/org/alfresco/modules/feed/config-feed.post.properties}label.noNews'
p331
S'Ingen nyhedsposter'
p332
sS'{alfresco/site-webscripts/org/alfresco/share/pages/faceted-search/faceted-search-config.get.properties}faceted-search-config.sortBy.AtoZ.label'
p333
S'A-Z'
p334
sS'{alfresco/site-webscripts/org/alfresco/share/pages/faceted-search/faceted-search-config.get.properties}faceted-search-config.displayControl.basic.label'
p335
S'Afkrydningsfelt'
p336
sS'{alfresco/site-webscripts/org/alfresco/share/pages/faceted-search/faceted-search.get.properties}faceted-search.heading.search-form'
p337
S'S\xc3\xb8geformular'
p338
sS'{alfresco/site-webscripts/org/alfresco/components/console/cloud-sync-management.get.properties}button.ssd-reassign.exportCSV.label'
p339
S'Eksporter'
p340
sS'{alfresco/site-webscripts/org/alfresco/components/console/usersgroups/users.get.properties}label.authorization.deleted'
p341
S'Slettet'
p342
sS'{alfresco/site-webscripts/org/alfresco/components/invite/added-users-list.get.properties}added-users-list.empty'
p343
S'Du har ikke tilf\xc3\xb8jet nogle brugere endnu'
p344
sS'{alfresco/site-webscripts/org/alfresco/components/console/cloud-sync-management.get.properties}button.ssd-reassign.confirm-label'
p345
S'Bliv ejer'
p346
sS'{alfresco/site-webscripts/org/alfresco/components/console/usersgroups/users.get.properties}message.deauthorize.failure'
p347
S'Vi kunne ikke de-autorisere brugeren. \\n \\"{0}\\"'
p348
sS'{alfresco/site-webscripts/org/alfresco/components/form/control-wrapper.post.properties}form.control.date-picker.display.date.format'
p349
S'DD/MM/YYYY'
p350
sS'{alfresco/site-webscripts/org/alfresco/components/form/control-wrapper.post.properties}form.button.reset.label'
p351
S'Ryd'
p352
sS'{alfresco/site-webscripts/org/alfresco/share/imports/document-library.lib.properties}doclib.options.label'
p353
S'Valgmuligheder'
p354
sS'{alfresco/site-webscripts/org/alfresco/share/imports/document-library.lib.properties}doclib.fullscreen.label'
p355
S'Fuld sk\xc3\xa6rm'
p356
sS'{alfresco/site-webscripts/org/alfresco/share/pages/faceted-search/faceted-search-config.get.properties}faceted-search-config.sortBy.ZtoA.label'
p357
S'Z-A'
p358
sS'{alfresco/site-webscripts/org/alfresco/share/pages/faceted-search/faceted-search-config.get.properties}faceted-search-config.isEnabled.description'
p359
S'Du kan sl\xc3\xa5 dette fra for at skjulde filtret fra s\xc3\xb8geresultaterne'
p360
sS'{alfresco/site-webscripts/org/alfresco/components/form/control-wrapper.post.properties}form.control.period.expression'
p361
S'Udtryk'
p362
sS'{alfresco/site-webscripts/org/alfresco/share/pages/faceted-search/faceted-search-config.get.properties}faceted-search-config.form.save.label'
p363
S'Gem'
p364
sS'{alfresco/site-webscripts/org/alfresco/components/form/control-wrapper.post.properties}form.required.fields.marker'
p365
S'*'
p366
sS'{alfresco/site-webscripts/org/alfresco/components/console/usersgroups/users.get.properties}deauthorize.dialog.deauthorize.confirm.ok'
p367
S'Fjern autorisation'
p368
sS'{alfresco/site-webscripts/org/alfresco/components/form/control-wrapper.post.properties}form.control.date-picker.entry.time.format'
p369
S'HH:mm'
p370
sS'{alfresco/site-webscripts/org/alfresco/components/form/control-wrapper.post.properties}form.control.date-picker.view.date.format'
p371
S'EEE dd MMM yyyy'
p372
sS'{alfresco/site-webscripts/org/alfresco/share/pages/faceted-search/faceted-search-config.get.properties}faceted-search-config.isEnabled.no'
p373
S'Nej'
p374
sS'{alfresco/site-webscripts/org/alfresco/share/pages/faceted-search/faceted-search-config.get.properties}faceted-search-config.delete.successMessage'
p375
S"'{filterID}' slettet"
p376
sS'{alfresco/site-webscripts/org/alfresco/share/pages/faceted-search/faceted-search.get.properties}faceted-search.results.heading.details'
p377
S'Resultatdetaljer'
p378
sS'{alfresco/site-webscripts/org/alfresco/components/form/control-wrapper.post.properties}form.control.object-picker.modified-on'
p379
S'Sidst \xc3\xa6ndret'
p380
sS'{alfresco/messages/slingshot.properties}role.SiteContributor.description'
p381
S'har fulde rettigheder til site-indholdet, de ejer; de kan ikke redigere eller slette indhold, som er oprettet af andre site-medlemmer.'
p382
sS'{alfresco/messages/slingshot.properties}hybridsync.ssd-id-header-label'
p383
S'Synkroniserings ID'
p384
sS'{alfresco/site-webscripts/org/alfresco/components/console/usersgroups/users.get.properties}reauthorize.dialog.button.ok'
p385
S'Re-autoris\xc3\xa9r'
p386
sS'{alfresco/site-webscripts/org/alfresco/components/people-finder/people-finder.get.properties}message.maxresults'
p387
S'Mere end {0} s\xc3\xb8geresultater fundet. Viser kun de f\xc3\xb8rste {0}'
p388
sS'{alfresco/site-webscripts/org/alfresco/components/console/module-package.get.properties}module-package.title'
p389
S'Titel'
p390
sS'{alfresco/messages/slingshot.properties}message.failure.workflow'
p391
S'Brugeren {0} har ikke tilladelse til at tilg\xc3\xa5 denne opgave'
p392
sS'{alfresco/site-webscripts/org/alfresco/share/imports/document-library.lib.properties}show-folders.label'
p393
S'Vis mapper'
p394
sS'{alfresco/site-webscripts/org/alfresco/modules/cloud/cloud-sync-status.get.properties}sync.status.unknown-location.unauthorized'
p395
S'Ikke autoriseret'
p396
sS'{alfresco/site-webscripts/org/alfresco/share/pages/faceted-search/faceted-search-config.get.properties}faceted-search-config.filterId.label'
p397
S'Filter ID'
p398
sS'{alfresco/site-webscripts/org/alfresco/share/imports/document-library.lib.properties}create.content.description.label'
p399
S'Beskrivelse'
p400
sS'{alfresco/site-webscripts/org/alfresco/components/console/cloud-sync-management.get.properties}message.no-ssds'
p401
S'Vi kunne ikke finde nogle synkroniserede filer eller mapper'
p402
sS'{alfresco/messages/slingshot.properties}message.edit-online-aos.plugin_blocked.body.chrome'
p403
S'Tryk p\xc3\xa5 blokeringsikonet p\xc3\xa5 adresselinjen i Chrome for at forts\xc3\xa6tte'
p404
sS'{alfresco/site-webscripts/org/alfresco/components/form/control-wrapper.post.properties}form.control.object-picker.search'
p405
S'S\xc3\xb8g'
p406
sS'{alfresco/site-webscripts/org/alfresco/components/comments/comments-list.get.properties}link.showHelp'
p407
S'Vis hj\xc3\xa6lp'
p408
sS'{alfresco/site-webscripts/org/alfresco/share/pages/faceted-search/faceted-search-config.get.properties}faceted-search-config.form.cancel.label'
p409
S'Annuller'
p410
sS'{alfresco/messages/slingshot.properties}message.confirm.take-ownership.title'
p411
S'Bliv ejer?'
p412
sS'{alfresco/site-webscripts/org/alfresco/share/pages/faceted-search/faceted-search-config.get.properties}faceted-search-config.hitThreshold.description'
p413
S'V\xc3\xa6lg det mindste antal hits et filterresultat skal have for at blive vist'
p414
sS'{alfresco/site-webscripts/org/alfresco/components/form/control-wrapper.post.properties}label.default'
p415
S'V\xc3\xa6rdi'
p416
sS'{alfresco/site-webscripts/org/alfresco/share/pages/faceted-search/faceted-search-config.get.properties}faceted-search-config.displayControl.description'
p417
S'V\xc3\xa6lg, hvordan filtret skal vises'
p418
sS'{alfresco/messages/slingshot.properties}page.error.500.title'
p419
S'Alfresco Share &raquo; Systemfejl'
p420
sS'{alfresco/messages/slingshot.properties}roles-tooltip.docs-url-label'
p421
S'Se mere'
p422
sS'{alfresco/messages/slingshot.properties}hybridsync.remote-tenant-id-header-label'
p423
S'Skyens netv\xc3\xa6rk'
p424
sS'{alfresco/site-webscripts/org/alfresco/components/form/control-wrapper.post.properties}form.control.object-picker.create-new.failure'
p425
S'Kunne ikke oprette nyt objekt.'
p426
sS'{alfresco/site-webscripts/org/alfresco/components/invite/added-users-list.get.properties}added-users-list.title'
p427
S'Tilf\xc3\xb8j brugere til Site'
p428
sS'{alfresco/site-webscripts/org/alfresco/share/pages/faceted-search/faceted-search-config.get.properties}faceted-search-config.isDefault.description'
p429
S'Pr\xc3\xa6definerede filtre kan ikke slettes. Du kan skjule dem ved at sl\xc3\xa5 \xe2\x80\x9dVis med s\xc3\xb8geresultater\xe2\x80\x9d fra'
p430
sS'{alfresco/site-webscripts/org/alfresco/modules/create-site.get.properties}error.unableToCreate'
p431
S'Dette site-navn anvendes allerede af et andet site. Unders\xc3\xb8g, om et andet site (som m\xc3\xa5ske er slettet eller findes i en skraldespand) anvender navnet eller v\xc3\xa6lg et andet sitenavn'
p432
sS'{alfresco/site-webscripts/org/alfresco/share/pages/faceted-search/faceted-search.get.properties}faceted-search.hide-advanced-search.label'
p433
S'Skjul avanceret s\xc3\xb8gning'
p434
sS'{alfresco/site-webscripts/org/alfresco/share/options/faceted-search/available-facets.get.properties}facetQName.creator'
p435
S'Oprettet af'
p436
sS'{alfresco/site-webscripts/org/alfresco/share/pages/faceted-search/faceted-search.get.properties}faceted-search.suggestions.label'
p437
S'Mente du:'
p438
sS'{alfresco/site-webscripts/org/alfresco/modules/documentlibrary/copy-move-to.get.properties}unzip.message.success'
p439
S'Udpakkede {0} objekt(er)'
p440
sS'{alfresco/site-webscripts/org/alfresco/share/pages/faceted-search/faceted-search-config.get.properties}faceted-search-config.hitThreshold.label'
p441
S'Mindste antal resultater kr\xc3\xa6vet'
p442
sS'{alfresco/site-webscripts/org/alfresco/components/invite/added-users-list.get.properties}added-users-list.tally'
p443
S'Antal brugere tilf\xc3\xb8jet {0}'
p444
sS'{alfresco/site-webscripts/org/alfresco/modules/documentlibrary/copy-move-to.get.properties}unzip.title.single'
p445
S'Udpak {0} til...'
p446
sS'{alfresco/site-webscripts/org/alfresco/components/dashlets/async-rssfeed.post.properties}label.header'
p447
S'RSS Feed'
p448
sS'{alfresco/site-webscripts/org/alfresco/share/pages/faceted-search/faceted-search-config.get.properties}faceted-search-config.update.successMessage'
p449
S"Opdaterede '{filterID}'"
p450
sS'{alfresco/site-webscripts/org/alfresco/share/imports/document-library.lib.properties}create.content.title.label'
p451
S'titel'
p452
sS'{alfresco/site-webscripts/org/alfresco/share/pages/faceted-search/faceted-search-config.get.properties}faceted-search-config.scope.none.label'
p453
S'Overalt'
p454
sS'{alfresco/site-webscripts/org/alfresco/share/pages/faceted-search/faceted-search-config.get.properties}faceted-search-config.scopedSites.site.description'
p455
S'V\xc3\xa6lg og gem et site.'
p456
sS'{alfresco/site-webscripts/org/alfresco/components/console/usersgroups/users.get.properties}message.deauthorize.success'
p457
S'Brugerens autorisation blev \xc3\xa6ndret'
p458
sS'{alfresco/site-webscripts/org/alfresco/components/console/module-package.get.properties}module-package.no-modules'
p459
S'Ingen moduler fundet'
p460
sS'{alfresco/messages/slingshot.properties}site.visibility.description.PUBLIC'
p461
S'Alle i din organisation kan tilg\xc3\xa5 dette site.'
p462
sS'{alfresco/site-webscripts/org/alfresco/components/console/usersgroups/users.get.properties}deauthorize.dialog.deauthorize.confirm.cancel'
p463
S'Annuller'
p464
sS'{alfresco/site-webscripts/org/alfresco/components/form/control-wrapper.post.properties}form.required.fields'
p465
S'Obligatoriske felter'
p466
sS'{alfresco/site-webscripts/org/alfresco/share/pages/admin-console/custom-model-manager.get.properties}header.menu.admin.model.manager.label'
p467
S'H\xc3\xa5ndter modeller'
p468
sS'{alfresco/site-webscripts/org/alfresco/share/pages/faceted-search/faceted-search-config.get.properties}faceted-search-config.maxFilters.description'
p469
S'V\xc3\xa6lg det maksimale antal filtre som vises for s\xc3\xb8geresultater (brugere kan v\xc3\xa6lge at vise flere filtre)'
p470
sS'{alfresco/messages/slingshot.properties}lightbox.loading'
p471
S'henter'
p472
sS'{alfresco/messages/slingshot.properties}role.Editor.description'
p473
S'har rettigheder til at redigere filegenskaber og checke filer ind og ud; de kan ikke oprette deres eget indhold.'
p474
sS'{alfresco/site-webscripts/org/alfresco/components/dashlets/async-rssfeed.post.properties}label.configure'
p475
S'Konfigurer'
p476
sS'{alfresco/messages/slingshot.properties}message.new-version-upload.success'
p477
S'Filen er uploadet. Forh\xc3\xa5ndsvisningen viser muligvis endnu ikke den seneste version af dokumentet - du kan genopfriske siden senere for at opdatere forh\xc3\xa5ndsvisningen'
p478
sS'{alfresco/site-webscripts/org/alfresco/components/calendar/view.get.properties}calendar.site-does-not-exist-title'
p479
S"Sitet ''{0}'' findes ikke eller ogs\xc3\xa5 har du ikke de n\xc3\xb8dvendige rettigheder til at tilg\xc3\xa5 det"
p480
sS'{alfresco/site-webscripts/org/alfresco/share/pages/faceted-search/faceted-search-config.get.properties}faceted-search-config.facetQName.label'
p481
S'Filteregenskab'
p482
sS'{alfresco/site-webscripts/org/alfresco/components/form/control-wrapper.post.properties}form.control.object-picker.items-list.empty'
p483
S'Ingen objekter fundet'
p484
sS'{alfresco/site-webscripts/org/alfresco/share/imports/document-library.lib.properties}create.text-document.label'
p485
S'Tekstdokument'
p486
sS'{alfresco/site-webscripts/org/alfresco/modules/feed/config-feed.post.properties}title.error.unsupported'
p487
S'RSS feed format er ikke underst\xc3\xb8ttet'
p488
sS'{alfresco/site-webscripts/org/alfresco/components/dashlets/async-rssfeed.post.properties}label.noItems'
p489
S'Ingen nyhedsposter'
p490
sS'{alfresco/site-webscripts/org/alfresco/share/imports/share-header.lib.properties}join_site_moderated.label'
p491
S'Foresp\xc3\xb8rg deltagelse'
p492
sS'{alfresco/messages/slingshot.properties}message.edit-online-aos.plugin_blocked.body.firefox'
p493
S'Tryk p\xc3\xa5 v\xc3\xa6rkt\xc3\xb8jslinjen i Firefox for at forts\xc3\xa6tte'
p494
sS'{alfresco/site-webscripts/org/alfresco/share/pages/faceted-search/faceted-search.get.properties}faceted-search.heading.facet-menu'
p495
S'Facetmenu'
p496
sS'{alfresco/messages/slingshot.properties}page.add-users.description'
p497
S'Tilf\xc3\xb8j brugere til et site'
p498
sS'{alfresco/site-webscripts/org/alfresco/components/dashlets/dynamic-welcome.get.properties}site.panel.delete.msg'
p499
S'Er du sikker p\xc3\xa5, at du vil fjerne hj\xc3\xa6lpepanelet fra instrumentbr\xc3\xa6ttet permanent?'
p500
sS'{alfresco/site-webscripts/org/alfresco/share/pages/admin-console/custom-model-manager.get.properties}cmm.button.create'
p501
S'Opret'
p502
sS'{alfresco/site-webscripts/org/alfresco/share/pages/faceted-search/faceted-search-config.get.properties}faceted-search-config.displayName.description'
p503
S'Det viste filternavn'
p504
sS'{alfresco/messages/slingshot.properties}message.details.failure.more.max.length'
p505
S'En af egenskaberne har en st\xc3\xb8rrelse, som er st\xc3\xb8rre end det tilladte.'
p506
sS'{alfresco/site-webscripts/org/alfresco/components/form/control-wrapper.post.properties}form.field.not.editable'
p507
S'Systemet har forhindret dette felt i at blive redigeret'
p508
sS'{alfresco/messages/slingshot.properties}message.take-ownership.success'
p509
S"Du er nu ejer af ''{0}''"
p510
sS'{alfresco/site-webscripts/org/alfresco/components/dashboard/customise-dashlets.get.properties}label.keyboard-instruction2'
p511
S'Ved brug af tastetur: brug tabulatortasten for at v\xc3\xa6lge et instrument. Brug piletasterne for at navigere til n\xc3\xa6ste instrument. Tryk escape for at frav\xc3\xa6lge et objekt. Tryk Delete for at slette et objekt.'
p512
sS'{alfresco/site-webscripts/org/alfresco/components/calendar/view.get.properties}calendar.site-does-not-exist'
p513
S'Sitet findes ikke eller ogs\xc3\xa5 har du ikke de n\xc3\xb8dvendige rettigheder til at tilg\xc3\xa5 det'
p514
sS'{alfresco/site-webscripts/org/alfresco/share/options/faceted-search/available-facets.get.properties}facetQName.created'
p515
S'Oprettet'
p516
sS'{alfresco/site-webscripts/org/alfresco/share/pages/faceted-search/faceted-search.get.properties}faceted-search.search-form.search-field-label'
p517
S'S\xc3\xb8gefelt'
p518
sS'{alfresco/site-webscripts/org/alfresco/share/pages/faceted-search/faceted-search-config.get.properties}faceted-search-config.sortBy.highToLow.label'
p519
S'Antal resultater (h\xc3\xb8j til lav)'
p520
sS'{alfresco/site-webscripts/org/alfresco/components/dashlets/activity-list.get.properties}more.activities'
p521
S'{0} aktiviter til'
p522
sS'{alfresco/site-webscripts/org/alfresco/modules/documentlibrary/copy-move-to.get.properties}unzip.message.exists.failure.file'
p523
S'Udpakningen kunne ikke fuldf\xc3\xb8res. Der findes allerede en fil med det samme navn'
p524
sS'{alfresco/site-webscripts/org/alfresco/share/pages/faceted-search/faceted-search-config.get.properties}faceted-search-config.create-facet.label'
p525
S'Opret nyt filter'
p526
sS'{alfresco/site-webscripts/org/alfresco/share/pages/faceted-search/faceted-search-config.get.properties}faceted-search-config.scope.label'
p527
S'Filtertilg\xc3\xa6ngelighed'
p528
sS'{alfresco/messages/slingshot.properties}actions.document.unzip-to'
p529
S'Udpak til...'
p530
sS'{alfresco/site-webscripts/org/alfresco/components/invite/invitationlist.get.properties}added-users-list.direct-add-instructions'
p531
S'Du har ikke valgt nogle brugere endnu'
p532
sS'{alfresco/site-webscripts/org/alfresco/share/pages/faceted-search/faceted-search-config.get.properties}faceted-search-config.scopedSites.site.label'
p533
S'Site-navn'
p534
sS'{alfresco/site-webscripts/org/alfresco/modules/documentlibrary/copy-move-to.get.properties}unzip.message.failure'
p535
S'Udpakningen kunne ikke fuldf\xc3\xb8res'
p536
sS'{alfresco/site-webscripts/org/alfresco/components/form/control-wrapper.post.properties}form.control.object-picker.items-list.loading'
p537
S'Henter...'
p538
sS'{alfresco/site-webscripts/org/alfresco/share/pages/faceted-search/faceted-search-config.get.properties}faceted-search-config.sortBy.description'
p539
S'V\xc3\xa6lg r\xc3\xa6kkef\xc3\xb8lgen, som filterresultaterne vises i.'
p540
sS'{alfresco/site-webscripts/org/alfresco/components/dashlets/dynamic-welcome.get.properties}site.panel.delete.header'
p541
S'Bekr\xc3\xa6ft fjernelse'
p542
sS'{alfresco/site-webscripts/org/alfresco/share/imports/document-library.lib.properties}create.xml-document.label'
p543
S'XML-dokument'
p544
sS'{alfresco/messages/slingshot.properties}calendar.widget_control_config.label_month'
p545
S'V\xc3\xa6lg m\xc3\xa5ned'
p546
sS'{alfresco/site-webscripts/org/alfresco/share/options/faceted-search/available-facets.get.properties}facetQName.modified'
p547
S'Sidst \xc3\xa6ndret'
p548
sS'{alfresco/site-webscripts/org/alfresco/share/imports/document-library.lib.properties}create.html-document.title'
p549
S'Opret HTML dokument'
p550
sS'{alfresco/site-webscripts/org/alfresco/share/pages/faceted-search/faceted-search-config.get.properties}faceted-search-config.scope.site.label'
p551
S'Valgte sites'
p552
sS'{alfresco/messages/slingshot.properties}role.Contributor'
p553
S'Bidragsyder'
p554
sS'{alfresco/messages/slingshot.properties}hybridsync.target-folder-node-ref-header-label'
p555
S'Destination for sky'
p556
sS'{alfresco/messages/slingshot.properties}quickshare.document.unshare.user.failure'
p557
S'Du har ikke de n\xc3\xb8dvendige tilladelser til udf\xc3\xb8re denne handling'
p558
sS'{alfresco/site-webscripts/org/alfresco/share/options/faceted-search/available-facets.get.properties}facetQName.mimetype'
p559
S'Format'
p560
sS'{alfresco/site-webscripts/org/alfresco/components/form/control-wrapper.post.properties}form.control.object-picker.header'
p561
S'V\xc3\xa6lg...'
p562
sS'{alfresco/site-webscripts/org/alfresco/components/title/collaboration-title.get.properties}message.site-does-not-exist'
p563
S'Det efterspurgte site findes ikke, eller ogs\xc3\xa5 har du ikke tilladelse til at tilg\xc3\xa5 det.'
p564
sS'{alfresco/site-webscripts/org/alfresco/share/pages/faceted-search/faceted-search.get.properties}faceted-search.show-advanced-search.label'
p565
S'Vis avanceret s\xc3\xb8gning'
p566
sS'{alfresco/site-webscripts/org/alfresco/components/console/cloud-sync-management.get.properties}button.ssd-reassign.cancel-label'
p567
S'Annuller'
p568
sS'{alfresco/site-webscripts/org/alfresco/components/form/control-wrapper.post.properties}form.control.mimetype.label'
p569
S'Mimetype'
p570
sS'{alfresco/site-webscripts/org/alfresco/components/form/control-wrapper.post.properties}form.control.object-picker.add-item'
p571
S'Tilf\xc3\xb8j'
p572
sS'{alfresco/site-webscripts/org/alfresco/share/imports/document-library.lib.properties}create.folder.label'
p573
S'Mappe'
p574
sS'{alfresco/site-webscripts/org/alfresco/share/pages/faceted-search/faceted-search-config.get.properties}faceted-search-config.displayName.label'
p575
S'Filternavn'
p576
sS'{alfresco/messages/slingshot.properties}role.Coordinator'
p577
S'Koordinator'
p578
sS'{alfresco/site-webscripts/org/alfresco/components/form/control-wrapper.post.properties}form.button.submit.label'
p579
S'Send'
p580
sS'{alfresco/messages/slingshot.properties}role.Contributor.description'
p581
S'har fulde rettigheder at indholdet, de ejer; de kan ikke redigere eller slette indhold, som andre har oprettet.'
p582
sS'{alfresco/site-webscripts/org/alfresco/components/dashboard/customise-dashlets.get.properties}label.keyboard-instruction1'
p583
S'Ved brug af tastetur: brug tabulatortasten for at navigere til n\xc3\xa6ste instrument. V\xc3\xa6lg dashletten og tryk retur for at tilf\xc3\xb8je instrumentet til kolonne. Tryk escape for at frav\xc3\xa6lge et objekt'
p584
sS'{alfresco/site-webscripts/org/alfresco/components/form/control-wrapper.post.properties}form.control.association.message.empty'
p585
S'Fandt ikke nogle objekter'
p586
sS'{alfresco/site-webscripts/org/alfresco/components/console/module-package.get.properties}module-package.description'
p587
S'Beskrivelse'
p588
sS'{alfresco/site-webscripts/org/alfresco/components/form/control-wrapper.post.properties}form.control.checkbox.yes'
p589
S'Ja'
p590
sS'{alfresco/site-webscripts/org/alfresco/share/imports/share-header.lib.properties}set_current_page_as_home.label'
p591
S'Anvend nuv\xc3\xa6rende side'
p592
sS'{alfresco/site-webscripts/org/alfresco/components/console/usersgroups/users.get.properties}deauthorize.dialog.checkbox.message'
p593
S'Jeg er indforst\xc3\xa5et med, at brugerens autorisation ikke kan tildeles igen, n\xc3\xa5r f\xc3\xb8rst den er fjernet'
p594
sS'{alfresco/site-webscripts/org/alfresco/share/options/faceted-search/available-facets-controls.get.properties}facet.rendering.control.simple'
p595
S'Simpelt filter'
p596
sS'{alfresco/site-webscripts/org/alfresco/share/imports/document-library.lib.properties}show-sidebar.label'
p597
S'Vis browser sidebar'
p598
sS'{alfresco/site-webscripts/org/alfresco/share/pages/faceted-search/faceted-search-config.get.properties}faceted-search-config.delete.altText'
p599
S"Klik for at slette '{0}'"
p600
sS'{alfresco/messages/slingshot.properties}hybridsync.cloud-user-header-label'
p601
S'Bruger i skyen'
p602
sS'{alfresco/site-webscripts/org/alfresco/components/form/control-wrapper.post.properties}form.control.encoding.unknown'
p603
S'Ukendt'
p604
sS'{alfresco/messages/slingshot.properties}page.add-users.title'
p605
S'Tilf\xc3\xb8j brugere'
p606
sS'{alfresco/messages/slingshot.properties}calendar.widget_control_config.label_invalid_year'
p607
S'Indtast venligst et gyldigt \xc3\xa5rstal'
p608
sS'{alfresco/messages/slingshot.properties}site.visibility.description.PRIVATE'
p609
S'Kun brugere, som er tilf\xc3\xb8jet af en siteadministrator, kan finde og bruge dette site'
p610
sS'{alfresco/site-webscripts/org/alfresco/modules/documentlibrary/copy-move-to.get.properties}unzip.message.exists.failure.folder'
p611
S'Udpakningen kunne ikke fuldf\xc3\xb8res. Der findes allerede en mappe med det samme navn'
p612
sS'{alfresco/site-webscripts/org/alfresco/share/imports/document-library.lib.properties}create.content.content.label'
p613
S'Indhold'
p614
sS'{alfresco/messages/slingshot.properties}actions.document.take-ownership'
p615
S'Bliv ejer'
p616
sS'{alfresco/site-webscripts/org/alfresco/share/pages/faceted-search/faceted-search.get.properties}faceted-search.results.heading.thumbnail'
p617
S'Resultat-thumbnail'
p618
sS'{alfresco/site-webscripts/org/alfresco/components/console/usersgroups/users.get.properties}label.authorization.isdeleted'
p619
S'Slettet?'
p620
sS'{alfresco/site-webscripts/org/alfresco/share/options/faceted-search/available-facets.get.properties}facetQName.size'
p621
S'St\xc3\xb8rrelse'
p622
sS'{alfresco/messages/slingshot.properties}aspect.exif_resolution'
p623
S'Opl\xc3\xb8sning'
p624
sS'{alfresco/messages/slingshot.properties}message.confirm.take-ownership'
p625
S"Du bliver ejer af ''{0}'' og den tidligere ejer vil muligvis f\xc3\xa5 indskr\xc3\xa6nket sine rettigheder"
p626
sS'{alfresco/site-webscripts/org/alfresco/share/imports/document-library.lib.properties}doclib.fullwindow.label'
p627
S'Hele vinduet'
p628
sS'{alfresco/site-webscripts/org/alfresco/components/form/control-wrapper.post.properties}form.control.mimetype.unknown'
p629
S'Ukendt'
p630
sS'{alfresco/site-webscripts/org/alfresco/share/pages/admin-console/custom-model-manager.get.properties}cmm.button.cancel'
p631
S'Annuller'
p632
s(lp633
tp634
.